
ch585_grand_finale.elf:     file format elf32-littleriscv


Disassembly of section .init:

00000000 <InterruptVector>:
   0:	1310106f          	j	1930 <handle_reset>
   4:	00000000          	.word	0x00000000
   8:	000019e0          	.word	0x000019e0
   c:	000019e0          	.word	0x000019e0
  10:	f3f9bda9          	.word	0xf3f9bda9
  14:	000019e0          	.word	0x000019e0
	...
  20:	000019e0          	.word	0x000019e0
  24:	000019e0          	.word	0x000019e0
	...
  30:	000019e0          	.word	0x000019e0
  34:	00000000          	.word	0x00000000
  38:	000019e0          	.word	0x000019e0
  3c:	00000000          	.word	0x00000000
  40:	000019e0          	.word	0x000019e0
  44:	000019e0          	.word	0x000019e0
  48:	00002002          	.word	0x00002002
  4c:	000019e0          	.word	0x000019e0
  50:	000019e0          	.word	0x000019e0
  54:	000019e0          	.word	0x000019e0
  58:	000019e2          	.word	0x000019e2
  5c:	00000000          	.word	0x00000000
  60:	000019e0          	.word	0x000019e0
  64:	000019e0          	.word	0x000019e0
  68:	000019e0          	.word	0x000019e0
  6c:	000019e0          	.word	0x000019e0
  70:	000019e0          	.word	0x000019e0
  74:	000019e0          	.word	0x000019e0
  78:	000019e0          	.word	0x000019e0
  7c:	000019e0          	.word	0x000019e0
  80:	000019e0          	.word	0x000019e0
  84:	000019e0          	.word	0x000019e0
  88:	000019e0          	.word	0x000019e0
  8c:	000019e0          	.word	0x000019e0
  90:	2000011a          	.word	0x2000011a
  94:	000019e0          	.word	0x000019e0
  98:	000019e0          	.word	0x000019e0
  9c:	000019e0          	.word	0x000019e0

Disassembly of section .highcode:

20000000 <blink>:
	audio_play_tag_cue(gs_picc_uid, uid_len);
	sk6812_set_rgb(0, 0, 0);
}

__HIGH_CODE
void blink(int n) {
20000000:	1101                	addi	sp,sp,-32
20000002:	ca26                	sw	s1,20(sp)
20000004:	c84a                	sw	s2,16(sp)
20000006:	c64e                	sw	s3,12(sp)
	for(int i = n-1; i >= 0; i--) {
		funDigitalWrite( LED, LED_ON );
20000008:	40001937          	lui	s2,0x40001
			case 0: sk6812_set_rgb(SK6812_BRIGHT, 0, 0); break; // red
			case 1: sk6812_set_rgb(0, SK6812_BRIGHT, 0); break; // green
			default: sk6812_set_rgb(0, 0, SK6812_BRIGHT); break; // blue
		}
#endif
		Delay_Ms(33);
2000000c:	001f74b7          	lui	s1,0x1f7
		funDigitalWrite( LED, LED_OFF );
20000010:	400019b7          	lui	s3,0x40001
void blink(int n) {
20000014:	cc22                	sw	s0,24(sp)
20000016:	c452                	sw	s4,8(sp)
20000018:	c256                	sw	s5,4(sp)
2000001a:	c05a                	sw	s6,0(sp)
2000001c:	ce06                	sw	ra,28(sp)
	for(int i = n-1; i >= 0; i--) {
2000001e:	fff50413          	addi	s0,a0,-1
		funDigitalWrite( LED, LED_ON );
20000022:	0cc90913          	addi	s2,s2,204 # 400010cc <_eusrstack+0x1ffe10cc>
20000026:	4a21                	li	s4,8
		switch( i % 3 )
20000028:	4a8d                	li	s5,3
2000002a:	4b05                	li	s6,1
		Delay_Ms(33);
2000002c:	bc048493          	addi	s1,s1,-1088 # 1f6bc0 <ch585_grand_finale.c.9f3d4ca2+0x1f312f>
		funDigitalWrite( LED, LED_OFF );
20000030:	0d898993          	addi	s3,s3,216 # 400010d8 <_eusrstack+0x1ffe10d8>
	for(int i = n-1; i >= 0; i--) {
20000034:	00045c63          	bgez	s0,2000004c <blink+0x4c>
#if !SK6812_DISABLE
		sk6812_set_rgb(0, 0, 0);
#endif
		if(i) Delay_Ms(33);
	}
}
20000038:	40f2                	lw	ra,28(sp)
2000003a:	4462                	lw	s0,24(sp)
2000003c:	44d2                	lw	s1,20(sp)
2000003e:	4942                	lw	s2,16(sp)
20000040:	49b2                	lw	s3,12(sp)
20000042:	4a22                	lw	s4,8(sp)
20000044:	4a92                	lw	s5,4(sp)
20000046:	4b02                	lw	s6,0(sp)
20000048:	6105                	addi	sp,sp,32
2000004a:	8082                	ret
		switch( i % 3 )
2000004c:	035467b3          	rem	a5,s0,s5
		funDigitalWrite( LED, LED_ON );
20000050:	01492023          	sw	s4,0(s2)
		switch( i % 3 )
20000054:	c799                	beqz	a5,20000062 <blink+0x62>
20000056:	05678463          	beq	a5,s6,2000009e <blink+0x9e>
			default: sk6812_set_rgb(0, 0, SK6812_BRIGHT); break; // blue
2000005a:	02000613          	li	a2,32
2000005e:	4581                	li	a1,0
20000060:	a091                	j	200000a4 <blink+0xa4>
			case 0: sk6812_set_rgb(SK6812_BRIGHT, 0, 0); break; // red
20000062:	4601                	li	a2,0
20000064:	4581                	li	a1,0
20000066:	02000513          	li	a0,32
			default: sk6812_set_rgb(0, 0, SK6812_BRIGHT); break; // blue
2000006a:	e0002097          	auipc	ra,0xe0002
2000006e:	83a080e7          	jalr	-1990(ra) # 18a4 <sk6812_set_rgb>
		Delay_Ms(33);
20000072:	8526                	mv	a0,s1
20000074:	e0001097          	auipc	ra,0xe0001
20000078:	330080e7          	jalr	816(ra) # 13a4 <DelaySysTick>
		sk6812_set_rgb(0, 0, 0);
2000007c:	4601                	li	a2,0
		funDigitalWrite( LED, LED_OFF );
2000007e:	0149a023          	sw	s4,0(s3)
		sk6812_set_rgb(0, 0, 0);
20000082:	4581                	li	a1,0
20000084:	4501                	li	a0,0
20000086:	e0002097          	auipc	ra,0xe0002
2000008a:	81e080e7          	jalr	-2018(ra) # 18a4 <sk6812_set_rgb>
		if(i) Delay_Ms(33);
2000008e:	c411                	beqz	s0,2000009a <blink+0x9a>
20000090:	8526                	mv	a0,s1
20000092:	e0001097          	auipc	ra,0xe0001
20000096:	312080e7          	jalr	786(ra) # 13a4 <DelaySysTick>
	for(int i = n-1; i >= 0; i--) {
2000009a:	147d                	addi	s0,s0,-1
2000009c:	bf61                	j	20000034 <blink+0x34>
			case 1: sk6812_set_rgb(0, SK6812_BRIGHT, 0); break; // green
2000009e:	4601                	li	a2,0
200000a0:	02000593          	li	a1,32
			default: sk6812_set_rgb(0, 0, SK6812_BRIGHT); break; // blue
200000a4:	4501                	li	a0,0
200000a6:	b7d1                	j	2000006a <blink+0x6a>

200000a8 <HandleDataOut>:
int HandleInRequest( struct _USBState * ctx, int endp, uint8_t * data, int len ) {
	return 0;
}

__HIGH_CODE
void HandleDataOut( struct _USBState * ctx, int endp, uint8_t * data, int len ) {
200000a8:	1141                	addi	sp,sp,-16
200000aa:	c422                	sw	s0,8(sp)
200000ac:	c606                	sw	ra,12(sp)
200000ae:	842a                	mv	s0,a0
	// this is actually the data rx handler
	if ( endp == 0 ) {
200000b0:	e599                	bnez	a1,200000be <HandleDataOut+0x16>
		// this is in the hsusb.c default handler
		ctx->USBFS_SetupReqLen = 0; // To ACK
200000b2:	00051123          	sh	zero,2(a0)
			// previous usb buffer not consumed yet, what should we do?
		}

		ctx->USBFS_Endp_Busy[USB_EP_RX] = 0;
	}
}
200000b6:	40b2                	lw	ra,12(sp)
200000b8:	4422                	lw	s0,8(sp)
200000ba:	0141                	addi	sp,sp,16
200000bc:	8082                	ret
	else if( endp == USB_EP_RX ) {
200000be:	4789                	li	a5,2
200000c0:	fef59be3          	bne	a1,a5,200000b6 <HandleDataOut+0xe>
		if(len == 4 && ((uint32_t*)data)[0] == 0x010001a2) {
200000c4:	4791                	li	a5,4
200000c6:	02f69663          	bne	a3,a5,200000f2 <HandleDataOut+0x4a>
200000ca:	4218                	lw	a4,0(a2)
200000cc:	010007b7          	lui	a5,0x1000
200000d0:	1a278793          	addi	a5,a5,418 # 10001a2 <ch585_grand_finale.c.9f3d4ca2+0xffc711>
200000d4:	00f71f63          	bne	a4,a5,200000f2 <HandleDataOut+0x4a>
			USBFSReset();
200000d8:	e0001097          	auipc	ra,0xe0001
200000dc:	364080e7          	jalr	868(ra) # 143c <USBFSReset>
			blink(2);
200000e0:	4509                	li	a0,2
200000e2:	3f39                	jal	20000000 <blink>
			jump_isprom();
200000e4:	e0002097          	auipc	ra,0xe0002
200000e8:	df6080e7          	jalr	-522(ra) # 1eda <jump_isprom>
		ctx->USBFS_Endp_Busy[USB_EP_RX] = 0;
200000ec:	0e040123          	sb	zero,226(s0)
}
200000f0:	b7d9                	j	200000b6 <HandleDataOut+0xe>
		else if( ((uint16_t*)gs_usb_data_buf)[0] == 0 ) {
200000f2:	55c1d783          	lhu	a5,1372(gp) # 20001c5c <gs_usb_data_buf>
200000f6:	fbfd                	bnez	a5,200000ec <HandleDataOut+0x44>
			((uint16_t*)gs_usb_data_buf)[0] = len;
200000f8:	54d19e23          	sh	a3,1372(gp) # 20001c5c <gs_usb_data_buf>
				gs_usb_data_buf[2 + i] = data[i];
200000fc:	55c18713          	addi	a4,gp,1372 # 20001c5c <gs_usb_data_buf>
			for(int i = 0; i < len; i++) {
20000100:	fed7d6e3          	bge	a5,a3,200000ec <HandleDataOut+0x44>
				gs_usb_data_buf[2 + i] = data[i];
20000104:	00f60533          	add	a0,a2,a5
20000108:	00054503          	lbu	a0,0(a0)
2000010c:	00278593          	addi	a1,a5,2
20000110:	95ba                	add	a1,a1,a4
20000112:	00a58023          	sb	a0,0(a1)
			for(int i = 0; i < len; i++) {
20000116:	0785                	addi	a5,a5,1
20000118:	b7e5                	j	20000100 <HandleDataOut+0x58>

2000011a <NFC_IRQHandler>:

__INTERRUPT
__HIGH_CODE
void NFC_IRQHandler(void) {
2000011a:	7179                	addi	sp,sp,-48
2000011c:	cc3a                	sw	a4,24(sp)
	// Read the interrupt status and write it back to clear the flags.
	uint16_t intf_status = R16_NFC_INTF_STATUS;
2000011e:	4000e737          	lui	a4,0x4000e
void NFC_IRQHandler(void) {
20000122:	ca3e                	sw	a5,20(sp)
	uint16_t intf_status = R16_NFC_INTF_STATUS;
20000124:	00475783          	lhu	a5,4(a4) # 4000e004 <_eusrstack+0x1ffee004>
void NFC_IRQHandler(void) {
20000128:	d032                	sw	a2,32(sp)
2000012a:	ce36                	sw	a3,28(sp)
	uint16_t intf_status = R16_NFC_INTF_STATUS;
2000012c:	07c2                	slli	a5,a5,0x10
2000012e:	83c1                	srli	a5,a5,0x10
void NFC_IRQHandler(void) {
20000130:	d61a                	sw	t1,44(sp)
20000132:	d42a                	sw	a0,40(sp)
20000134:	d22e                	sw	a1,36(sp)
20000136:	c842                	sw	a6,16(sp)
20000138:	c646                	sw	a7,12(sp)
	R16_NFC_INTF_STATUS = intf_status;
2000013a:	00f71223          	sh	a5,4(a4)
	g_last_nfc_intf_status = intf_status;
2000013e:	c2f19e23          	sh	a5,-964(gp) # 2000133c <g_last_nfc_intf_status>

	// --- State 1: TRANSMITTING ---
	if (g_nfca_pcd_comm_status == 1) {
20000142:	c3a1c683          	lbu	a3,-966(gp) # 2000133a <g_nfca_pcd_comm_status>
20000146:	4605                	li	a2,1
20000148:	0ac69f63          	bne	a3,a2,20000206 <NFC_IRQHandler+0xec>
		// Check if the TX FIFO is ready for more data (TX FIFO Empty flag)
		if ((intf_status & 8) && (g_nfca_pcd_send_fifo_bytes < g_nfca_pcd_send_total_bytes)) {
2000014c:	0087f693          	andi	a3,a5,8
20000150:	c2a9                	beqz	a3,20000192 <NFC_IRQHandler+0x78>
20000152:	c381d583          	lhu	a1,-968(gp) # 20001338 <g_nfca_pcd_send_fifo_bytes>
20000156:	c361d683          	lhu	a3,-970(gp) # 20001336 <g_nfca_pcd_send_total_bytes>
2000015a:	02d5fc63          	bgeu	a1,a3,20000192 <NFC_IRQHandler+0x78>
			// Refill the FIFO with up to 5 words
			for (int i = 0; i < 5; i++) {
				R16_NFC_FIFO = gs_nfca_data_buf[g_nfca_pcd_send_fifo_bytes++];
2000015e:	4000e837          	lui	a6,0x4000e
20000162:	4595                	li	a1,5
20000164:	35c18513          	addi	a0,gp,860 # 20001a5c <gs_nfca_data_buf>
20000168:	0831                	addi	a6,a6,12 # 4000e00c <_eusrstack+0x1ffee00c>
2000016a:	c381d683          	lhu	a3,-968(gp) # 20001338 <g_nfca_pcd_send_fifo_bytes>
2000016e:	00168313          	addi	t1,a3,1
20000172:	0686                	slli	a3,a3,0x1
20000174:	96aa                	add	a3,a3,a0
20000176:	0006d683          	lhu	a3,0(a3)
2000017a:	c2619c23          	sh	t1,-968(gp) # 20001338 <g_nfca_pcd_send_fifo_bytes>
2000017e:	00d81023          	sh	a3,0(a6)
				if (g_nfca_pcd_send_fifo_bytes >= g_nfca_pcd_send_total_bytes) {
20000182:	c381d303          	lhu	t1,-968(gp) # 20001338 <g_nfca_pcd_send_fifo_bytes>
20000186:	c361d683          	lhu	a3,-970(gp) # 20001336 <g_nfca_pcd_send_total_bytes>
2000018a:	00d37463          	bgeu	t1,a3,20000192 <NFC_IRQHandler+0x78>
			for (int i = 0; i < 5; i++) {
2000018e:	15fd                	addi	a1,a1,-1
20000190:	fde9                	bnez	a1,2000016a <NFC_IRQHandler+0x50>
				}
			}
		}

		// Check if the transmission has completed (TX Complete flag)
		if (intf_status & 1) {
20000192:	8b85                	andi	a5,a5,1
20000194:	c7a9                	beqz	a5,200001de <NFC_IRQHandler+0xc4>

			// If mode is Transceive, switch to receive mode
			R8_NFC_CMD &= ~(0x01); // Clear the Start TX bit
20000196:	4000e6b7          	lui	a3,0x4000e
2000019a:	0006c783          	lbu	a5,0(a3) # 4000e000 <_eusrstack+0x1ffee000>
2000019e:	0fe7f793          	andi	a5,a5,254
200001a2:	00f68023          	sb	a5,0(a3)
			if (g_nfca_pcd_intf_mode) {
200001a6:	c341c783          	lbu	a5,-972(gp) # 20001334 <g_nfca_pcd_intf_mode>
200001aa:	c7b1                	beqz	a5,200001f6 <NFC_IRQHandler+0xdc>
				g_nfca_pcd_recv_bits = 0;
200001ac:	c201a823          	sw	zero,-976(gp) # 20001330 <g_nfca_pcd_recv_bits>
				g_nfca_pcd_recv_word_idx = 0;
200001b0:	c2019623          	sh	zero,-980(gp) # 2000132c <g_nfca_pcd_recv_word_idx>

				// Set control register based on mode (e.g., enable parity)
				R8_NFC_STATUS = (g_nfca_pcd_intf_mode & 0x10) ? 0x36 : 0x26;
200001b4:	8bc1                	andi	a5,a5,16
200001b6:	02600613          	li	a2,38
200001ba:	c399                	beqz	a5,200001c0 <NFC_IRQHandler+0xa6>
200001bc:	03600613          	li	a2,54
200001c0:	4000e7b7          	lui	a5,0x4000e
200001c4:	00c780a3          	sb	a2,1(a5) # 4000e001 <_eusrstack+0x1ffee001>

				g_nfca_pcd_comm_status = 2; // Change state to Receiving
200001c8:	4789                	li	a5,2
				R8_NFC_STATUS = (g_nfca_pcd_intf_mode & 0x10) ? 0x36 : 0x26;
200001ca:	4000e6b7          	lui	a3,0x4000e
				g_nfca_pcd_comm_status = 2; // Change state to Receiving
200001ce:	c2f18d23          	sb	a5,-966(gp) # 2000133a <g_nfca_pcd_comm_status>
				R8_NFC_CMD |= 0x18; // Enable RX
200001d2:	0006c783          	lbu	a5,0(a3) # 4000e000 <_eusrstack+0x1ffee000>
200001d6:	0187e793          	ori	a5,a5,24
200001da:	00f68023          	sb	a5,0(a3)
	// --- Any Other State: ERROR ---
	else {
		g_nfca_pcd_comm_status = 6; // Status: General Error
		g_last_nfc_comm_status = g_nfca_pcd_comm_status;
	}
}
200001de:	5332                	lw	t1,44(sp)
200001e0:	5522                	lw	a0,40(sp)
200001e2:	5592                	lw	a1,36(sp)
200001e4:	5602                	lw	a2,32(sp)
200001e6:	46f2                	lw	a3,28(sp)
200001e8:	4762                	lw	a4,24(sp)
200001ea:	47d2                	lw	a5,20(sp)
200001ec:	4842                	lw	a6,16(sp)
200001ee:	48b2                	lw	a7,12(sp)
200001f0:	6145                	addi	sp,sp,48
200001f2:	30200073          	mret
				R8_NFC_STATUS = 0;
200001f6:	4000e7b7          	lui	a5,0x4000e
200001fa:	000780a3          	sb	zero,1(a5) # 4000e001 <_eusrstack+0x1ffee001>
				g_nfca_pcd_comm_status = 5; // Status: Success
200001fe:	4795                	li	a5,5
20000200:	c2f18d23          	sb	a5,-966(gp) # 2000133a <g_nfca_pcd_comm_status>
20000204:	bfe9                	j	200001de <NFC_IRQHandler+0xc4>
	else if (g_nfca_pcd_comm_status == 2) {
20000206:	4609                	li	a2,2
20000208:	10c69663          	bne	a3,a2,20000314 <NFC_IRQHandler+0x1fa>
		if (intf_status & 4) { // Note: OV flag is used for Not Empty
2000020c:	0047f693          	andi	a3,a5,4
20000210:	c68d                	beqz	a3,2000023a <NFC_IRQHandler+0x120>
				gs_nfca_data_buf[g_nfca_pcd_recv_word_idx++] = R16_NFC_FIFO;
20000212:	4000e537          	lui	a0,0x4000e
20000216:	4615                	li	a2,5
20000218:	0531                	addi	a0,a0,12 # 4000e00c <_eusrstack+0x1ffee00c>
2000021a:	35c18593          	addi	a1,gp,860 # 20001a5c <gs_nfca_data_buf>
2000021e:	c2c1d683          	lhu	a3,-980(gp) # 2000132c <g_nfca_pcd_recv_word_idx>
			for (int i = 0; i < 5; i++) {
20000222:	167d                	addi	a2,a2,-1
				gs_nfca_data_buf[g_nfca_pcd_recv_word_idx++] = R16_NFC_FIFO;
20000224:	00168893          	addi	a7,a3,1
20000228:	c3119623          	sh	a7,-980(gp) # 2000132c <g_nfca_pcd_recv_word_idx>
2000022c:	00055883          	lhu	a7,0(a0)
20000230:	0686                	slli	a3,a3,0x1
20000232:	96ae                	add	a3,a3,a1
20000234:	01169023          	sh	a7,0(a3)
			for (int i = 0; i < 5; i++) {
20000238:	f27d                	bnez	a2,2000021e <NFC_IRQHandler+0x104>
		if (intf_status & 2) {
2000023a:	0027f693          	andi	a3,a5,2
2000023e:	c6ad                	beqz	a3,200002a8 <NFC_IRQHandler+0x18e>
			g_nfca_pcd_recv_bits = R16_NFC_RXTX_LEN;
20000240:	4000e7b7          	lui	a5,0x4000e
20000244:	0087d683          	lhu	a3,8(a5) # 4000e008 <_eusrstack+0x1ffee008>
20000248:	06c2                	slli	a3,a3,0x10
2000024a:	82c1                	srli	a3,a3,0x10
2000024c:	c2d1a823          	sw	a3,-976(gp) # 20001330 <g_nfca_pcd_recv_bits>
			g_last_nfc_recv_bits = g_nfca_pcd_recv_bits;
20000250:	c301a603          	lw	a2,-976(gp) # 20001330 <g_nfca_pcd_recv_bits>
20000254:	c2c1a423          	sw	a2,-984(gp) # 20001328 <g_last_nfc_recv_bits>
			uint16_t received_words = (g_nfca_pcd_recv_bits + 15) / 16;
20000258:	c301a783          	lw	a5,-976(gp) # 20001330 <g_nfca_pcd_recv_bits>
			if (g_nfca_pcd_recv_word_idx < received_words) {
2000025c:	c2c1d683          	lhu	a3,-980(gp) # 2000132c <g_nfca_pcd_recv_word_idx>
			uint16_t received_words = (g_nfca_pcd_recv_bits + 15) / 16;
20000260:	07bd                	addi	a5,a5,15
20000262:	8391                	srli	a5,a5,0x4
20000264:	07c2                	slli	a5,a5,0x10
20000266:	83c1                	srli	a5,a5,0x10
			if (g_nfca_pcd_recv_word_idx < received_words) {
20000268:	02f6fa63          	bgeu	a3,a5,2000029c <NFC_IRQHandler+0x182>
				uint16_t words_to_drain = received_words - g_nfca_pcd_recv_word_idx;
2000026c:	8f95                	sub	a5,a5,a3
				for (int i = 0; i < words_to_drain; i++) {
2000026e:	07c2                	slli	a5,a5,0x10
					gs_nfca_data_buf[g_nfca_pcd_recv_word_idx++] = R16_NFC_FIFO;
20000270:	4000e537          	lui	a0,0x4000e
				for (int i = 0; i < words_to_drain; i++) {
20000274:	83c1                	srli	a5,a5,0x10
20000276:	4601                	li	a2,0
					gs_nfca_data_buf[g_nfca_pcd_recv_word_idx++] = R16_NFC_FIFO;
20000278:	0531                	addi	a0,a0,12 # 4000e00c <_eusrstack+0x1ffee00c>
2000027a:	35c18593          	addi	a1,gp,860 # 20001a5c <gs_nfca_data_buf>
2000027e:	c2c1d683          	lhu	a3,-980(gp) # 2000132c <g_nfca_pcd_recv_word_idx>
				for (int i = 0; i < words_to_drain; i++) {
20000282:	0605                	addi	a2,a2,1
					gs_nfca_data_buf[g_nfca_pcd_recv_word_idx++] = R16_NFC_FIFO;
20000284:	00168893          	addi	a7,a3,1
20000288:	c3119623          	sh	a7,-980(gp) # 2000132c <g_nfca_pcd_recv_word_idx>
2000028c:	00055883          	lhu	a7,0(a0)
20000290:	0686                	slli	a3,a3,0x1
20000292:	96ae                	add	a3,a3,a1
20000294:	01169023          	sh	a7,0(a3)
				for (int i = 0; i < words_to_drain; i++) {
20000298:	fef643e3          	blt	a2,a5,2000027e <NFC_IRQHandler+0x164>
			g_nfca_pcd_comm_status = 5; // Status: Success
2000029c:	4795                	li	a5,5
		g_nfca_pcd_comm_status = 6; // Status: General Error
2000029e:	c2f18d23          	sb	a5,-966(gp) # 2000133a <g_nfca_pcd_comm_status>
		g_last_nfc_comm_status = g_nfca_pcd_comm_status;
200002a2:	c2f182a3          	sb	a5,-987(gp) # 20001325 <g_last_nfc_comm_status>
}
200002a6:	bf25                	j	200001de <NFC_IRQHandler+0xc4>
		else if (intf_status & 0x10) {
200002a8:	0107f693          	andi	a3,a5,16
200002ac:	ceb1                	beqz	a3,20000308 <NFC_IRQHandler+0x1ee>
			g_nfca_pcd_recv_bits = R16_NFC_RXTX_LEN;
200002ae:	4000e7b7          	lui	a5,0x4000e
200002b2:	07a1                	addi	a5,a5,8 # 4000e008 <_eusrstack+0x1ffee008>
200002b4:	0007d783          	lhu	a5,0(a5)
200002b8:	07c2                	slli	a5,a5,0x10
200002ba:	83c1                	srli	a5,a5,0x10
200002bc:	c2f1a823          	sw	a5,-976(gp) # 20001330 <g_nfca_pcd_recv_bits>
			uint16_t received_words = (g_nfca_pcd_recv_bits + 15) / 16;
200002c0:	c301a783          	lw	a5,-976(gp) # 20001330 <g_nfca_pcd_recv_bits>
			if (g_nfca_pcd_recv_word_idx < received_words) {
200002c4:	c2c1d683          	lhu	a3,-980(gp) # 2000132c <g_nfca_pcd_recv_word_idx>
			uint16_t received_words = (g_nfca_pcd_recv_bits + 15) / 16;
200002c8:	07bd                	addi	a5,a5,15
200002ca:	8391                	srli	a5,a5,0x4
200002cc:	07c2                	slli	a5,a5,0x10
200002ce:	83c1                	srli	a5,a5,0x10
			if (g_nfca_pcd_recv_word_idx < received_words) {
200002d0:	02f6fa63          	bgeu	a3,a5,20000304 <NFC_IRQHandler+0x1ea>
				uint16_t words_to_drain = received_words - g_nfca_pcd_recv_word_idx;
200002d4:	8f95                	sub	a5,a5,a3
				for (int i = 0; i < words_to_drain; i++) {
200002d6:	07c2                	slli	a5,a5,0x10
					gs_nfca_data_buf[g_nfca_pcd_recv_word_idx++] = R16_NFC_FIFO;
200002d8:	4000e537          	lui	a0,0x4000e
				for (int i = 0; i < words_to_drain; i++) {
200002dc:	83c1                	srli	a5,a5,0x10
200002de:	4601                	li	a2,0
					gs_nfca_data_buf[g_nfca_pcd_recv_word_idx++] = R16_NFC_FIFO;
200002e0:	0531                	addi	a0,a0,12 # 4000e00c <_eusrstack+0x1ffee00c>
200002e2:	35c18593          	addi	a1,gp,860 # 20001a5c <gs_nfca_data_buf>
200002e6:	c2c1d683          	lhu	a3,-980(gp) # 2000132c <g_nfca_pcd_recv_word_idx>
				for (int i = 0; i < words_to_drain; i++) {
200002ea:	0605                	addi	a2,a2,1
					gs_nfca_data_buf[g_nfca_pcd_recv_word_idx++] = R16_NFC_FIFO;
200002ec:	00168893          	addi	a7,a3,1
200002f0:	c3119623          	sh	a7,-980(gp) # 2000132c <g_nfca_pcd_recv_word_idx>
200002f4:	00055883          	lhu	a7,0(a0)
200002f8:	0686                	slli	a3,a3,0x1
200002fa:	96ae                	add	a3,a3,a1
200002fc:	01169023          	sh	a7,0(a3)
				for (int i = 0; i < words_to_drain; i++) {
20000300:	fef643e3          	blt	a2,a5,200002e6 <NFC_IRQHandler+0x1cc>
			g_nfca_pcd_comm_status = 3; // Status: Parity Error
20000304:	478d                	li	a5,3
20000306:	bf61                	j	2000029e <NFC_IRQHandler+0x184>
		else if (intf_status & 0x20) {
20000308:	0207f793          	andi	a5,a5,32
2000030c:	ec0789e3          	beqz	a5,200001de <NFC_IRQHandler+0xc4>
			g_nfca_pcd_comm_status = 4; // Status: CRC Error
20000310:	4791                	li	a5,4
20000312:	b771                	j	2000029e <NFC_IRQHandler+0x184>
		g_nfca_pcd_comm_status = 6; // Status: General Error
20000314:	4799                	li	a5,6
20000316:	b761                	j	2000029e <NFC_IRQHandler+0x184>

20000318 <nfca_pcd_lpcd_check>:
	lpcd_adc_all = (lpcd_adc_all >> 3);
	return (uint16_t)lpcd_adc_all;
}

__HIGH_CODE
uint8_t nfca_pcd_lpcd_check(void) {
20000318:	1141                	addi	sp,sp,-16
2000031a:	c606                	sw	ra,12(sp)
	uint32_t adc_value_diff;
	uint16_t adc_value;
	uint8_t res = 0;

	adc_value = nfca_adc_get_ant_signal();
2000031c:	e0001097          	auipc	ra,0xe0001
20000320:	248080e7          	jalr	584(ra) # 1564 <nfca_adc_get_ant_signal>
	g_last_nfc_ant_adc = adc_value;
20000324:	c2a19123          	sh	a0,-990(gp) # 20001322 <g_last_nfc_ant_adc>
	if(adc_value > gs_lpcd_adc_base_value) {
20000328:	c201d703          	lhu	a4,-992(gp) # 20001320 <gs_lpcd_adc_base_value>
	adc_value = nfca_adc_get_ant_signal();
2000032c:	87aa                	mv	a5,a0
		adc_value_diff = adc_value - gs_lpcd_adc_base_value;
	}
	else {
		adc_value_diff = gs_lpcd_adc_base_value - adc_value;
2000032e:	40a70533          	sub	a0,a4,a0
	if(adc_value > gs_lpcd_adc_base_value) {
20000332:	00f77463          	bgeu	a4,a5,2000033a <nfca_pcd_lpcd_check+0x22>
		adc_value_diff = adc_value - gs_lpcd_adc_base_value;
20000336:	40e78533          	sub	a0,a5,a4
	}
	adc_value_diff = (adc_value_diff * 1000) / gs_lpcd_adc_base_value;
2000033a:	3e800693          	li	a3,1000
2000033e:	02d50533          	mul	a0,a0,a3
20000342:	02e55533          	divu	a0,a0,a4

	if((adc_value > gs_lpcd_adc_base_value) && (adc_value_diff > NFCA_PCD_LPCD_THRESHOLD_MAX_LIMIT_PERMIL)) {
20000346:	04f77d63          	bgeu	a4,a5,200003a0 <nfca_pcd_lpcd_check+0x88>
2000034a:	4651                	li	a2,20
2000034c:	04a67a63          	bgeu	a2,a0,200003a0 <nfca_pcd_lpcd_check+0x88>
		adc_value = ((uint32_t)gs_lpcd_adc_base_value * (1000 + NFCA_PCD_LPCD_THRESHOLD_MAX_LIMIT_PERMIL) / 1000);
20000350:	3fc00793          	li	a5,1020
	uint8_t res = 0;
20000354:	4501                	li	a0,0
		adc_value = ((uint32_t)gs_lpcd_adc_base_value * (1000 + NFCA_PCD_LPCD_THRESHOLD_MAX_LIMIT_PERMIL) / 1000);
20000356:	02f70733          	mul	a4,a4,a5
2000035a:	02d75733          	divu	a4,a4,a3
2000035e:	01071793          	slli	a5,a4,0x10
20000362:	83c1                	srli	a5,a5,0x10
	for(uint8_t i = 0; i < 7; i++) {
20000364:	14c18713          	addi	a4,gp,332 # 2000184c <gs_lpcd_adc_filter_buf>
20000368:	00e70893          	addi	a7,a4,14
	uint32_t lpcd_adc_all = 0;
2000036c:	4601                	li	a2,0
2000036e:	14c18693          	addi	a3,gp,332 # 2000184c <gs_lpcd_adc_filter_buf>
		gs_lpcd_adc_filter_buf[i] = gs_lpcd_adc_filter_buf[i + 1];
20000372:	00275803          	lhu	a6,2(a4)
	for(uint8_t i = 0; i < 7; i++) {
20000376:	0709                	addi	a4,a4,2
		gs_lpcd_adc_filter_buf[i] = gs_lpcd_adc_filter_buf[i + 1];
20000378:	ff071f23          	sh	a6,-2(a4)
		lpcd_adc_all = lpcd_adc_all + gs_lpcd_adc_filter_buf[i];
2000037c:	9642                	add	a2,a2,a6
	for(uint8_t i = 0; i < 7; i++) {
2000037e:	fee89ae3          	bne	a7,a4,20000372 <nfca_pcd_lpcd_check+0x5a>
	gs_lpcd_adc_filter_buf[7] = lpcd_adc;
20000382:	00f69723          	sh	a5,14(a3)
	lpcd_adc_all = lpcd_adc_all + gs_lpcd_adc_filter_buf[7];
20000386:	97b2                	add	a5,a5,a2
	lpcd_adc_all = (lpcd_adc_all >> 3);
20000388:	838d                	srli	a5,a5,0x3
	return (uint16_t)lpcd_adc_all;
2000038a:	07c2                	slli	a5,a5,0x10
2000038c:	83c1                	srli	a5,a5,0x10

	gs_lpcd_adc_base_value = nfca_pcd_lpcd_adc_filter_buf_add(adc_value);
	g_last_lpcd_base = gs_lpcd_adc_base_value;
	g_last_lpcd_hit = res;
	return res;
}
2000038e:	40b2                	lw	ra,12(sp)
	g_last_lpcd_base = gs_lpcd_adc_base_value;
20000390:	c0f19f23          	sh	a5,-994(gp) # 2000131e <g_last_lpcd_base>
	gs_lpcd_adc_base_value = nfca_pcd_lpcd_adc_filter_buf_add(adc_value);
20000394:	c2f19023          	sh	a5,-992(gp) # 20001320 <gs_lpcd_adc_base_value>
	g_last_lpcd_hit = res;
20000398:	c0a18e23          	sb	a0,-996(gp) # 2000131c <g_last_lpcd_hit>
}
2000039c:	0141                	addi	sp,sp,16
2000039e:	8082                	ret
		if(adc_value_diff >= NFCA_PCD_LPCD_THRESHOLD_PERMIL) {
200003a0:	00553513          	sltiu	a0,a0,5
200003a4:	00154513          	xori	a0,a0,1
		if(adc_value < gs_lpcd_adc_base_value) {
200003a8:	fae7fee3          	bgeu	a5,a4,20000364 <nfca_pcd_lpcd_check+0x4c>
			adc_value = gs_lpcd_adc_base_value - 1;
200003ac:	177d                	addi	a4,a4,-1
200003ae:	01071793          	slli	a5,a4,0x10
200003b2:	83c1                	srli	a5,a5,0x10
200003b4:	bf45                	j	20000364 <nfca_pcd_lpcd_check+0x4c>

200003b6 <ISO14443_CRCA>:

// ISO 14443-3A functions
__HIGH_CODE
uint16_t ISO14443_CRCA(uint8_t *buf, int len) {
200003b6:	86aa                	mv	a3,a0
	uint8_t *data = buf;
	uint16_t crc = 0x6363;
	uint8_t ch;
	while (len--) {
200003b8:	95aa                	add	a1,a1,a0
	uint16_t crc = 0x6363;
200003ba:	6519                	lui	a0,0x6
200003bc:	36350513          	addi	a0,a0,867 # 6363 <ch585_grand_finale.c.9f3d4ca2+0x28d2>
	while (len--) {
200003c0:	00b69363          	bne	a3,a1,200003c6 <ISO14443_CRCA+0x10>
		ch = *data++ ^ crc;
		ch = ch ^ (ch << 4);
		crc = (crc >> 8) ^ (ch << 8) ^ (ch << 3) ^ (ch >> 4);
	}
	return crc;
}
200003c4:	8082                	ret
		ch = *data++ ^ crc;
200003c6:	0006c803          	lbu	a6,0(a3)
200003ca:	0685                	addi	a3,a3,1
200003cc:	00a84833          	xor	a6,a6,a0
200003d0:	0ff87813          	zext.b	a6,a6
		ch = ch ^ (ch << 4);
200003d4:	00481713          	slli	a4,a6,0x4
200003d8:	0ff77713          	zext.b	a4,a4
		crc = (crc >> 8) ^ (ch << 8) ^ (ch << 3) ^ (ch >> 4);
200003dc:	010747b3          	xor	a5,a4,a6
200003e0:	00879613          	slli	a2,a5,0x8
200003e4:	078e                	slli	a5,a5,0x3
200003e6:	8e3d                	xor	a2,a2,a5
200003e8:	01074733          	xor	a4,a4,a6
200003ec:	00855793          	srli	a5,a0,0x8
200003f0:	8e3d                	xor	a2,a2,a5
200003f2:	8311                	srli	a4,a4,0x4
200003f4:	8e39                	xor	a2,a2,a4
200003f6:	01061513          	slli	a0,a2,0x10
200003fa:	8141                	srli	a0,a0,0x10
200003fc:	b7d1                	j	200003c0 <ISO14443_CRCA+0xa>

200003fe <ISO14443AAppendCRCA>:

__HIGH_CODE
uint16_t ISO14443AAppendCRCA(void *buf, uint16_t len) {
	uint16_t crc = 0x6363;
	uint8_t *data = (uint8_t *) buf;
200003fe:	86aa                	mv	a3,a0
	uint8_t byte8 = 0;

	while (len--) {
20000400:	95b6                	add	a1,a1,a3
	uint16_t crc = 0x6363;
20000402:	6519                	lui	a0,0x6
	while (len--) {
20000404:	01059893          	slli	a7,a1,0x10
	uint16_t crc = 0x6363;
20000408:	36350513          	addi	a0,a0,867 # 6363 <ch585_grand_finale.c.9f3d4ca2+0x28d2>
	while (len--) {
2000040c:	0108d893          	srli	a7,a7,0x10
20000410:	01069793          	slli	a5,a3,0x10
20000414:	83c1                	srli	a5,a5,0x10
		byte8 = *data++;
		byte8 ^= crc & 0xFF;
		byte8 ^= byte8 << 4;

		crc = ((((uint16_t)byte8 << 8) | (((crc) >> 8) & 0xFF))
20000416:	00855813          	srli	a6,a0,0x8
	while (len--) {
2000041a:	00f89763          	bne	a7,a5,20000428 <ISO14443AAppendCRCA+0x2a>
				^ (uint8_t)(byte8 >> 4)
				^ ((uint16_t)byte8 << 3));
	}

	data[0] = (crc >> 0) & 0x00FF;
2000041e:	00a58023          	sb	a0,0(a1)
	data[1] = (crc >> 8) & 0x00FF;
20000422:	010580a3          	sb	a6,1(a1)

	return crc;
}
20000426:	8082                	ret
		byte8 ^= crc & 0xFF;
20000428:	0006c783          	lbu	a5,0(a3)
		byte8 = *data++;
2000042c:	0685                	addi	a3,a3,1
		byte8 ^= crc & 0xFF;
2000042e:	8fa9                	xor	a5,a5,a0
20000430:	07e2                	slli	a5,a5,0x18
20000432:	87e1                	srai	a5,a5,0x18
		byte8 ^= byte8 << 4;
20000434:	00479713          	slli	a4,a5,0x4
20000438:	8fb9                	xor	a5,a5,a4
		crc = ((((uint16_t)byte8 << 8) | (((crc) >> 8) & 0xFF))
2000043a:	0ff7f613          	zext.b	a2,a5
				^ (uint8_t)(byte8 >> 4)
2000043e:	8391                	srli	a5,a5,0x4
20000440:	00f7f713          	andi	a4,a5,15
				^ ((uint16_t)byte8 << 3));
20000444:	00361793          	slli	a5,a2,0x3
		crc = ((((uint16_t)byte8 << 8) | (((crc) >> 8) & 0xFF))
20000448:	0622                	slli	a2,a2,0x8
				^ ((uint16_t)byte8 << 3));
2000044a:	8fb9                	xor	a5,a5,a4
		crc = ((((uint16_t)byte8 << 8) | (((crc) >> 8) & 0xFF))
2000044c:	01066633          	or	a2,a2,a6
				^ ((uint16_t)byte8 << 3));
20000450:	8fb1                	xor	a5,a5,a2
		crc = ((((uint16_t)byte8 << 8) | (((crc) >> 8) & 0xFF))
20000452:	01079513          	slli	a0,a5,0x10
20000456:	8141                	srli	a0,a0,0x10
20000458:	bf65                	j	20000410 <ISO14443AAppendCRCA+0x12>

2000045a <ISO14443ACheckOddParityBit>:

__HIGH_CODE
uint8_t ISO14443ACheckOddParityBit(uint8_t *data, uint8_t *parity, uint16_t len) {
	for (int i = 0; i < len; i++) {
		if ((byteParityBitsTable[data[i]]) != parity[i]) {
2000045a:	670d                	lui	a4,0x3
	for (int i = 0; i < len; i++) {
2000045c:	4781                	li	a5,0
		if ((byteParityBitsTable[data[i]]) != parity[i]) {
2000045e:	83470713          	addi	a4,a4,-1996 # 2834 <byteParityBitsTable>
	for (int i = 0; i < len; i++) {
20000462:	00c7c463          	blt	a5,a2,2000046a <ISO14443ACheckOddParityBit+0x10>
			return 0;
		}
	}
	return 1;
20000466:	4505                	li	a0,1
20000468:	8082                	ret
		if ((byteParityBitsTable[data[i]]) != parity[i]) {
2000046a:	00f506b3          	add	a3,a0,a5
2000046e:	0006c803          	lbu	a6,0(a3)
20000472:	00f586b3          	add	a3,a1,a5
20000476:	0006c683          	lbu	a3,0(a3)
2000047a:	983a                	add	a6,a6,a4
2000047c:	00084803          	lbu	a6,0(a6)
20000480:	00d81463          	bne	a6,a3,20000488 <ISO14443ACheckOddParityBit+0x2e>
	for (int i = 0; i < len; i++) {
20000484:	0785                	addi	a5,a5,1
20000486:	bff1                	j	20000462 <ISO14443ACheckOddParityBit+0x8>
			return 0;
20000488:	4501                	li	a0,0
}
2000048a:	8082                	ret

2000048c <ISO14443ACalOddParityBit>:

__HIGH_CODE
void ISO14443ACalOddParityBit(uint8_t *data, uint8_t *out_parity, uint16_t len) {
	for (int i = 0; i < len; i++) {
		out_parity[i] = byteParityBitsTable[data[i]];
2000048c:	670d                	lui	a4,0x3
	for (int i = 0; i < len; i++) {
2000048e:	4781                	li	a5,0
		out_parity[i] = byteParityBitsTable[data[i]];
20000490:	83470713          	addi	a4,a4,-1996 # 2834 <byteParityBitsTable>
	for (int i = 0; i < len; i++) {
20000494:	00c7c363          	blt	a5,a2,2000049a <ISO14443ACalOddParityBit+0xe>
	}
}
20000498:	8082                	ret
		out_parity[i] = byteParityBitsTable[data[i]];
2000049a:	00f506b3          	add	a3,a0,a5
2000049e:	0006c683          	lbu	a3,0(a3)
200004a2:	00f58833          	add	a6,a1,a5
	for (int i = 0; i < len; i++) {
200004a6:	0785                	addi	a5,a5,1
		out_parity[i] = byteParityBitsTable[data[i]];
200004a8:	96ba                	add	a3,a3,a4
200004aa:	0006c683          	lbu	a3,0(a3)
200004ae:	00d80023          	sb	a3,0(a6)
	for (int i = 0; i < len; i++) {
200004b2:	b7cd                	j	20000494 <ISO14443ACalOddParityBit+0x8>

200004b4 <PcdReq>:

// PCD functions
__HIGH_CODE
int PcdReq(int cmd, uint8_t *data, int len) {
200004b4:	1101                	addi	sp,sp,-32
200004b6:	cc22                	sw	s0,24(sp)
200004b8:	ce06                	sw	ra,28(sp)
200004ba:	ca26                	sw	s1,20(sp)
200004bc:	c84a                	sw	s2,16(sp)
200004be:	c64e                	sw	s3,12(sp)
	uint16_t res = PCD_COMMUNICATE_ERROR;
	int comm_len = 0;

	if(cmd != CMD_RBLOCK) {
200004c0:	0a000793          	li	a5,160
int PcdReq(int cmd, uint8_t *data, int len) {
200004c4:	842a                	mv	s0,a0
	if(cmd != CMD_RBLOCK) {
200004c6:	0ef50063          	beq	a0,a5,200005a6 <PcdReq+0xf2>
		// clear chaining buffers
		for(int i = 0; i < NFCA_PCD_CHAINING_BUFFERS; i++) {
			g_nfca_pcd_recv_buf_chain[i * sizeof(g_nfca_pcd_recv_buf)] = 0;
200004ca:	c4c18793          	addi	a5,gp,-948 # 2000134c <g_nfca_pcd_recv_buf_chain>
200004ce:	00078023          	sb	zero,0(a5)
200004d2:	10078023          	sb	zero,256(a5)
200004d6:	20078023          	sb	zero,512(a5)
200004da:	30078023          	sb	zero,768(a5)
		}
	}

	switch(cmd) {
200004de:	05200793          	li	a5,82
200004e2:	18f50a63          	beq	a0,a5,20000676 <PcdReq+0x1c2>
200004e6:	84b2                	mv	s1,a2
200004e8:	02a7cb63          	blt	a5,a0,2000051e <PcdReq+0x6a>
200004ec:	02600793          	li	a5,38
200004f0:	18f50363          	beq	a0,a5,20000676 <PcdReq+0x1c2>
200004f4:	05000793          	li	a5,80
200004f8:	1af50163          	beq	a0,a5,2000069a <PcdReq+0x1e6>
200004fc:	4789                	li	a5,2
200004fe:	24f50863          	beq	a0,a5,2000074e <PcdReq+0x29a>
		g_nfca_pcd_intf_mode = 0;
20000502:	c2018a23          	sb	zero,-972(gp) # 20001334 <g_nfca_pcd_intf_mode>
		g_nfca_pcd_comm_status = 6; // Status: Error/Invalid Param
20000506:	4719                	li	a4,6
20000508:	c2e18d23          	sb	a4,-966(gp) # 2000133a <g_nfca_pcd_comm_status>
	uint16_t res = PCD_COMMUNICATE_ERROR;
2000050c:	4785                	li	a5,1
			res = PcdReq(CMD_RBLOCK, 0, 0); // we are ready, request the next part of the chained frame
		}
	}

	return res;
}
2000050e:	40f2                	lw	ra,28(sp)
20000510:	4462                	lw	s0,24(sp)
20000512:	44d2                	lw	s1,20(sp)
20000514:	4942                	lw	s2,16(sp)
20000516:	49b2                	lw	s3,12(sp)
20000518:	853e                	mv	a0,a5
2000051a:	6105                	addi	sp,sp,32
2000051c:	8082                	ret
	switch(cmd) {
2000051e:	0e000793          	li	a5,224
20000522:	20f50063          	beq	a0,a5,20000722 <PcdReq+0x26e>
20000526:	04a7c763          	blt	a5,a0,20000574 <PcdReq+0xc0>
2000052a:	f6d50713          	addi	a4,a0,-147
2000052e:	4791                	li	a5,4
20000530:	fce7e9e3          	bltu	a5,a4,20000502 <PcdReq+0x4e>
20000534:	47d5                	li	a5,21
20000536:	00e7d7b3          	srl	a5,a5,a4
2000053a:	8b85                	andi	a5,a5,1
2000053c:	d3f9                	beqz	a5,20000502 <PcdReq+0x4e>
		g_nfca_pcd_send_buf[0] = cmd;
2000053e:	0ff47713          	zext.b	a4,s0
20000542:	04c18793          	addi	a5,gp,76 # 2000174c <g_nfca_pcd_send_buf>
		if(len == 2) {
20000546:	4689                	li	a3,2
			g_nfca_pcd_send_buf[0] = cmd;
20000548:	00e78023          	sb	a4,0(a5)
		if(len == 2) {
2000054c:	16d49d63          	bne	s1,a3,200006c6 <PcdReq+0x212>
			g_nfca_pcd_send_buf[1] = 0x20;
20000550:	02000713          	li	a4,32
			ISO14443ACalOddParityBit(g_nfca_pcd_send_buf, g_nfca_parity_buf, len);
20000554:	04c18513          	addi	a0,gp,76 # 2000174c <g_nfca_pcd_send_buf>
20000558:	15c18593          	addi	a1,gp,348 # 2000185c <g_nfca_parity_buf>
			g_nfca_pcd_send_buf[1] = 0x20;
2000055c:	00e780a3          	sb	a4,1(a5)
			ISO14443ACalOddParityBit(g_nfca_pcd_send_buf, g_nfca_parity_buf, len);
20000560:	3735                	jal	2000048c <ISO14443ACalOddParityBit>
	R16_NFC_TMR = (uint16_t)ticks;
20000562:	6711                	lui	a4,0x4
20000564:	4000e7b7          	lui	a5,0x4000e
20000568:	36270713          	addi	a4,a4,866 # 4362 <ch585_grand_finale.c.9f3d4ca2+0x8d1>
2000056c:	00e79823          	sh	a4,16(a5) # 4000e010 <_eusrstack+0x1ffee010>
	if (nfca_pcd_comm(comm_len, NFCA_PCD_REC_MODE_NORMAL, 0) == 0) {
20000570:	4541                	li	a0,16
20000572:	a08d                	j	200005d4 <PcdReq+0x120>
	switch(cmd) {
20000574:	0f200793          	li	a5,242
20000578:	f8f515e3          	bne	a0,a5,20000502 <PcdReq+0x4e>
		g_nfca_pcd_send_buf[0] = data[0];
2000057c:	0005c703          	lbu	a4,0(a1)
20000580:	04c18793          	addi	a5,gp,76 # 2000174c <g_nfca_pcd_send_buf>
20000584:	00e78023          	sb	a4,0(a5)
		g_nfca_pcd_send_buf[1] = data[1];
20000588:	0015c703          	lbu	a4,1(a1)
		ISO14443AAppendCRCA(g_nfca_pcd_send_buf, len);
2000058c:	04c18513          	addi	a0,gp,76 # 2000174c <g_nfca_pcd_send_buf>
20000590:	4589                	li	a1,2
		g_nfca_pcd_send_buf[1] = data[1];
20000592:	00e780a3          	sb	a4,1(a5)
		ISO14443AAppendCRCA(g_nfca_pcd_send_buf, len);
20000596:	35a5                	jal	200003fe <ISO14443AAppendCRCA>
		ISO14443ACalOddParityBit(g_nfca_pcd_send_buf, g_nfca_parity_buf, len +2);
20000598:	4611                	li	a2,4
2000059a:	15c18593          	addi	a1,gp,348 # 2000185c <g_nfca_parity_buf>
2000059e:	04c18513          	addi	a0,gp,76 # 2000174c <g_nfca_pcd_send_buf>
200005a2:	35ed                	jal	2000048c <ISO14443ACalOddParityBit>
	if (nfca_pcd_comm(comm_len, NFCA_PCD_REC_MODE_NORMAL, 0) == 0) {
200005a4:	aa31                	j	200006c0 <PcdReq+0x20c>
		g_nfca_pcd_send_buf[0] = cmd + apdu_iblock_number;
200005a6:	c081c703          	lbu	a4,-1016(gp) # 20001308 <apdu_iblock_number>
		ISO14443AAppendCRCA(g_nfca_pcd_send_buf, len);
200005aa:	4585                	li	a1,1
		g_nfca_pcd_send_buf[0] = cmd + apdu_iblock_number;
200005ac:	fa070713          	addi	a4,a4,-96
200005b0:	04e18623          	sb	a4,76(gp) # 2000174c <g_nfca_pcd_send_buf>
		apdu_iblock_number ^= 1;
200005b4:	c081c703          	lbu	a4,-1016(gp) # 20001308 <apdu_iblock_number>
		ISO14443AAppendCRCA(g_nfca_pcd_send_buf, len);
200005b8:	04c18513          	addi	a0,gp,76 # 2000174c <g_nfca_pcd_send_buf>
		apdu_iblock_number ^= 1;
200005bc:	00174713          	xori	a4,a4,1
200005c0:	c0e18423          	sb	a4,-1016(gp) # 20001308 <apdu_iblock_number>
		ISO14443AAppendCRCA(g_nfca_pcd_send_buf, len);
200005c4:	3d2d                	jal	200003fe <ISO14443AAppendCRCA>
		ISO14443ACalOddParityBit(g_nfca_pcd_send_buf, g_nfca_parity_buf, len +2);
200005c6:	04c18513          	addi	a0,gp,76 # 2000174c <g_nfca_pcd_send_buf>
200005ca:	460d                	li	a2,3
200005cc:	15c18593          	addi	a1,gp,348 # 2000185c <g_nfca_parity_buf>
200005d0:	3d75                	jal	2000048c <ISO14443ACalOddParityBit>
	if (nfca_pcd_comm(comm_len, NFCA_PCD_REC_MODE_NORMAL, 0) == 0) {
200005d2:	4561                	li	a0,24
200005d4:	e0001097          	auipc	ra,0xe0001
200005d8:	158080e7          	jalr	344(ra) # 172c <nfca_pcd_comm.part.0.constprop.0>
200005dc:	f20518e3          	bnez	a0,2000050c <PcdReq+0x58>
		nfca_pcd_controller_state_t st = nfca_pcd_wait_comm_end();
200005e0:	e0001097          	auipc	ra,0xe0001
200005e4:	06c080e7          	jalr	108(ra) # 164c <nfca_pcd_wait_comm_end>
		g_last_nfc_comm_status = g_nfca_pcd_comm_status;
200005e8:	c3a1c703          	lbu	a4,-966(gp) # 2000133a <g_nfca_pcd_comm_status>
200005ec:	c2e182a3          	sb	a4,-987(gp) # 20001325 <g_last_nfc_comm_status>
		g_last_nfc_recv_bits = g_nfca_pcd_recv_bits;
200005f0:	c301a683          	lw	a3,-976(gp) # 20001330 <g_nfca_pcd_recv_bits>
200005f4:	c2d1a423          	sw	a3,-984(gp) # 20001328 <g_last_nfc_recv_bits>
		if(st == NFCA_PCD_CONTROLLER_STATE_DONE) {
200005f8:	4795                	li	a5,5
200005fa:	f0f519e3          	bne	a0,a5,2000050c <PcdReq+0x58>
			if (g_nfca_pcd_recv_bits % 9 == 0) {
200005fe:	c301a483          	lw	s1,-976(gp) # 20001330 <g_nfca_pcd_recv_bits>
20000602:	46a5                	li	a3,9
				res = PCD_FRAME_ERROR;
20000604:	10100793          	li	a5,257
			if (g_nfca_pcd_recv_bits % 9 == 0) {
20000608:	02d4f4b3          	remu	s1,s1,a3
2000060c:	f00491e3          	bnez	s1,2000050e <PcdReq+0x5a>
				int nbytes = g_nfca_pcd_recv_bits /9;
20000610:	c301a983          	lw	s3,-976(gp) # 20001330 <g_nfca_pcd_recv_bits>
20000614:	02d9d9b3          	divu	s3,s3,a3
				if (ISO14443ACheckOddParityBit(g_nfca_pcd_recv_buf, g_nfca_parity_buf, nbytes)) {
20000618:	15c18593          	addi	a1,gp,348 # 2000185c <g_nfca_parity_buf>
2000061c:	25c18513          	addi	a0,gp,604 # 2000195c <g_nfca_pcd_recv_buf>
20000620:	01099613          	slli	a2,s3,0x10
20000624:	8241                	srli	a2,a2,0x10
20000626:	3d15                	jal	2000045a <ISO14443ACheckOddParityBit>
					res = PCD_ODD_PARITY_ERROR;
20000628:	4789                	li	a5,2
				if (ISO14443ACheckOddParityBit(g_nfca_pcd_recv_buf, g_nfca_parity_buf, nbytes)) {
2000062a:	ee0502e3          	beqz	a0,2000050e <PcdReq+0x5a>
					if ((cmd == CMD_REQA) || (cmd == CMD_WUPA)) {
2000062e:	05200793          	li	a5,82
20000632:	02f40063          	beq	s0,a5,20000652 <PcdReq+0x19e>
20000636:	1887c563          	blt	a5,s0,200007c0 <PcdReq+0x30c>
2000063a:	02600793          	li	a5,38
2000063e:	00f40a63          	beq	s0,a5,20000652 <PcdReq+0x19e>
					else if (ISO14443_CRCA(g_nfca_pcd_recv_buf, nbytes) == 0) {
20000642:	85ce                	mv	a1,s3
20000644:	25c18513          	addi	a0,gp,604 # 2000195c <g_nfca_pcd_recv_buf>
20000648:	33bd                	jal	200003b6 <ISO14443_CRCA>
						res = PCD_CRC_ERROR;
2000064a:	10300793          	li	a5,259
					else if (ISO14443_CRCA(g_nfca_pcd_recv_buf, nbytes) == 0) {
2000064e:	ec0510e3          	bnez	a0,2000050e <PcdReq+0x5a>
		if(g_nfca_pcd_recv_buf[0] == CMD_WTX) {
20000652:	25c1c783          	lbu	a5,604(gp) # 2000195c <g_nfca_pcd_recv_buf>
20000656:	0f200713          	li	a4,242
2000065a:	25c18613          	addi	a2,gp,604 # 2000195c <g_nfca_pcd_recv_buf>
2000065e:	1ae79663          	bne	a5,a4,2000080a <PcdReq+0x356>
			res = PcdReq(CMD_WTX, g_nfca_pcd_recv_buf, 2);
20000662:	4609                	li	a2,2
20000664:	25c18593          	addi	a1,gp,604 # 2000195c <g_nfca_pcd_recv_buf>
20000668:	0f200513          	li	a0,242
			res = PcdReq(CMD_RBLOCK, 0, 0); // we are ready, request the next part of the chained frame
2000066c:	35a1                	jal	200004b4 <PcdReq>
2000066e:	01051793          	slli	a5,a0,0x10
20000672:	83c1                	srli	a5,a5,0x10
20000674:	bd69                	j	2000050e <PcdReq+0x5a>
		g_nfca_pcd_send_buf[0] = cmd;
20000676:	04818623          	sb	s0,76(gp) # 2000174c <g_nfca_pcd_send_buf>
		g_nfca_parity_buf[0] = byteParityBitsTable[cmd];
2000067a:	678d                	lui	a5,0x3
2000067c:	83478793          	addi	a5,a5,-1996 # 2834 <byteParityBitsTable>
20000680:	97a2                	add	a5,a5,s0
20000682:	0007c703          	lbu	a4,0(a5)
	if (nfca_pcd_comm(comm_len, NFCA_PCD_REC_MODE_NORMAL, 0) == 0) {
20000686:	451d                	li	a0,7
		g_nfca_parity_buf[0] = byteParityBitsTable[cmd];
20000688:	14e18e23          	sb	a4,348(gp) # 2000185c <g_nfca_parity_buf>
	R16_NFC_TMR = (uint16_t)ticks;
2000068c:	4000e7b7          	lui	a5,0x4000e
20000690:	15900713          	li	a4,345
20000694:	00e79823          	sh	a4,16(a5) # 4000e010 <_eusrstack+0x1ffee010>
	if (nfca_pcd_comm(comm_len, NFCA_PCD_REC_MODE_NORMAL, 0) == 0) {
20000698:	bf35                	j	200005d4 <PcdReq+0x120>
		g_nfca_pcd_send_buf[0] = CMD_HALT;
2000069a:	04a19623          	sh	a0,76(gp) # 2000174c <g_nfca_pcd_send_buf>
		ISO14443AAppendCRCA(g_nfca_pcd_send_buf, len);
2000069e:	4589                	li	a1,2
200006a0:	04c18513          	addi	a0,gp,76 # 2000174c <g_nfca_pcd_send_buf>
200006a4:	3ba9                	jal	200003fe <ISO14443AAppendCRCA>
		ISO14443ACalOddParityBit(g_nfca_pcd_send_buf, g_nfca_parity_buf, len +2);	
200006a6:	4611                	li	a2,4
200006a8:	15c18593          	addi	a1,gp,348 # 2000185c <g_nfca_parity_buf>
200006ac:	04c18513          	addi	a0,gp,76 # 2000174c <g_nfca_pcd_send_buf>
200006b0:	3bf1                	jal	2000048c <ISO14443ACalOddParityBit>
	R16_NFC_TMR = (uint16_t)ticks;
200006b2:	6709                	lui	a4,0x2
200006b4:	4000e7b7          	lui	a5,0x4000e
200006b8:	1b170713          	addi	a4,a4,433 # 21b1 <main+0x12f>
200006bc:	00e79823          	sh	a4,16(a5) # 4000e010 <_eusrstack+0x1ffee010>
	if (nfca_pcd_comm(comm_len, NFCA_PCD_REC_MODE_NORMAL, 0) == 0) {
200006c0:	02000513          	li	a0,32
200006c4:	bf01                	j	200005d4 <PcdReq+0x120>
			g_nfca_pcd_send_buf[1] = 0x70;
200006c6:	07000713          	li	a4,112
200006ca:	00e780a3          	sb	a4,1(a5)
			g_nfca_pcd_send_buf[6] = 0;
200006ce:	00078323          	sb	zero,6(a5)
			for(int i = 0; i < 4; i++) {
200006d2:	04c18613          	addi	a2,gp,76 # 2000174c <g_nfca_pcd_send_buf>
200006d6:	4701                	li	a4,0
200006d8:	4511                	li	a0,4
				g_nfca_pcd_send_buf[i + 2] = data[i];
200006da:	00e586b3          	add	a3,a1,a4
200006de:	0006c683          	lbu	a3,0(a3)
			for(int i = 0; i < 4; i++) {
200006e2:	0705                	addi	a4,a4,1
200006e4:	0605                	addi	a2,a2,1
				g_nfca_pcd_send_buf[i + 2] = data[i];
200006e6:	00d600a3          	sb	a3,1(a2)
				g_nfca_pcd_send_buf[6] ^= data[i];
200006ea:	0067c803          	lbu	a6,6(a5)
200006ee:	0106c6b3          	xor	a3,a3,a6
200006f2:	00d78323          	sb	a3,6(a5)
			for(int i = 0; i < 4; i++) {
200006f6:	fea712e3          	bne	a4,a0,200006da <PcdReq+0x226>
			ISO14443AAppendCRCA(g_nfca_pcd_send_buf, len);
200006fa:	459d                	li	a1,7
200006fc:	04c18513          	addi	a0,gp,76 # 2000174c <g_nfca_pcd_send_buf>
20000700:	39fd                	jal	200003fe <ISO14443AAppendCRCA>
			ISO14443ACalOddParityBit(g_nfca_pcd_send_buf, g_nfca_parity_buf, len +2);
20000702:	04c18513          	addi	a0,gp,76 # 2000174c <g_nfca_pcd_send_buf>
20000706:	4625                	li	a2,9
20000708:	15c18593          	addi	a1,gp,348 # 2000185c <g_nfca_parity_buf>
2000070c:	3341                	jal	2000048c <ISO14443ACalOddParityBit>
	R16_NFC_TMR = (uint16_t)ticks;
2000070e:	6711                	lui	a4,0x4
20000710:	4000e7b7          	lui	a5,0x4000e
20000714:	36270713          	addi	a4,a4,866 # 4362 <ch585_grand_finale.c.9f3d4ca2+0x8d1>
20000718:	00e79823          	sh	a4,16(a5) # 4000e010 <_eusrstack+0x1ffee010>
	if (nfca_pcd_comm(comm_len, NFCA_PCD_REC_MODE_NORMAL, 0) == 0) {
2000071c:	04800513          	li	a0,72
20000720:	bd55                	j	200005d4 <PcdReq+0x120>
		g_nfca_pcd_send_buf[0] = CMD_RATS;
20000722:	77e1                	lui	a5,0xffff8
20000724:	0e078793          	addi	a5,a5,224 # ffff80e0 <_eusrstack+0xdffd80e0>
		apdu_iblock_number = 0x02; // we'll start with apdu's in i-blocks after this
20000728:	4709                	li	a4,2
		g_nfca_pcd_send_buf[0] = CMD_RATS;
2000072a:	04f19623          	sh	a5,76(gp) # 2000174c <g_nfca_pcd_send_buf>
		ISO14443AAppendCRCA(g_nfca_pcd_send_buf, len);
2000072e:	4589                	li	a1,2
20000730:	04c18513          	addi	a0,gp,76 # 2000174c <g_nfca_pcd_send_buf>
		apdu_iblock_number = 0x02; // we'll start with apdu's in i-blocks after this
20000734:	c0e18423          	sb	a4,-1016(gp) # 20001308 <apdu_iblock_number>
		ISO14443AAppendCRCA(g_nfca_pcd_send_buf, len);
20000738:	31d9                	jal	200003fe <ISO14443AAppendCRCA>
		ISO14443ACalOddParityBit(g_nfca_pcd_send_buf, g_nfca_parity_buf, len +2);
2000073a:	4611                	li	a2,4
2000073c:	15c18593          	addi	a1,gp,348 # 2000185c <g_nfca_parity_buf>
20000740:	04c18513          	addi	a0,gp,76 # 2000174c <g_nfca_pcd_send_buf>
20000744:	33a1                	jal	2000048c <ISO14443ACalOddParityBit>
	R16_NFC_TMR = (uint16_t)ticks;
20000746:	4000e7b7          	lui	a5,0x4000e
2000074a:	577d                	li	a4,-1
2000074c:	bf85                	j	200006bc <PcdReq+0x208>
		g_nfca_pcd_send_buf[0] = apdu_iblock_number;
2000074e:	c081c703          	lbu	a4,-1016(gp) # 20001308 <apdu_iblock_number>
20000752:	04e18623          	sb	a4,76(gp) # 2000174c <g_nfca_pcd_send_buf>
		apdu_iblock_number ^= 1;
20000756:	c081c703          	lbu	a4,-1016(gp) # 20001308 <apdu_iblock_number>
2000075a:	00174713          	xori	a4,a4,1
2000075e:	c0e18423          	sb	a4,-1016(gp) # 20001308 <apdu_iblock_number>
		for(int i = 0; i < len; i++) {
20000762:	4781                	li	a5,0
20000764:	04c18713          	addi	a4,gp,76 # 2000174c <g_nfca_pcd_send_buf>
20000768:	0497c263          	blt	a5,s1,200007ac <PcdReq+0x2f8>
		len++;
2000076c:	00148913          	addi	s2,s1,1
		ISO14443AAppendCRCA(g_nfca_pcd_send_buf, len);
20000770:	0942                	slli	s2,s2,0x10
20000772:	01095913          	srli	s2,s2,0x10
20000776:	85ca                	mv	a1,s2
20000778:	04c18513          	addi	a0,gp,76 # 2000174c <g_nfca_pcd_send_buf>
2000077c:	3149                	jal	200003fe <ISO14443AAppendCRCA>
		ISO14443ACalOddParityBit(g_nfca_pcd_send_buf, g_nfca_parity_buf, len +2);
2000077e:	00290613          	addi	a2,s2,2
20000782:	0642                	slli	a2,a2,0x10
20000784:	04c18513          	addi	a0,gp,76 # 2000174c <g_nfca_pcd_send_buf>
20000788:	8241                	srli	a2,a2,0x10
2000078a:	15c18593          	addi	a1,gp,348 # 2000185c <g_nfca_parity_buf>
2000078e:	39fd                	jal	2000048c <ISO14443ACalOddParityBit>
		comm_len = (len +2) * 8;
20000790:	00348513          	addi	a0,s1,3
20000794:	050e                	slli	a0,a0,0x3
	R16_NFC_TMR = (uint16_t)ticks;
20000796:	4000e7b7          	lui	a5,0x4000e
2000079a:	577d                	li	a4,-1
	if (nfca_pcd_comm(comm_len, NFCA_PCD_REC_MODE_NORMAL, 0) == 0) {
2000079c:	0542                	slli	a0,a0,0x10
	R16_NFC_TMR = (uint16_t)ticks;
2000079e:	00e79823          	sh	a4,16(a5) # 4000e010 <_eusrstack+0x1ffee010>
	if (nfca_pcd_comm(comm_len, NFCA_PCD_REC_MODE_NORMAL, 0) == 0) {
200007a2:	8141                	srli	a0,a0,0x10
	if (data_bits_num <= 3) {
200007a4:	478d                	li	a5,3
200007a6:	d4a7fee3          	bgeu	a5,a0,20000502 <PcdReq+0x4e>
200007aa:	b52d                	j	200005d4 <PcdReq+0x120>
			g_nfca_pcd_send_buf[i +1] = data[i];
200007ac:	0785                	addi	a5,a5,1
200007ae:	00f586b3          	add	a3,a1,a5
200007b2:	fff6c603          	lbu	a2,-1(a3)
200007b6:	00f706b3          	add	a3,a4,a5
200007ba:	00c68023          	sb	a2,0(a3)
		for(int i = 0; i < len; i++) {
200007be:	b76d                	j	20000768 <PcdReq+0x2b4>
200007c0:	f6d40713          	addi	a4,s0,-147
200007c4:	4791                	li	a5,4
200007c6:	e6e7eee3          	bltu	a5,a4,20000642 <PcdReq+0x18e>
200007ca:	47d5                	li	a5,21
200007cc:	00e7d7b3          	srl	a5,a5,a4
200007d0:	8b85                	andi	a5,a5,1
200007d2:	e60788e3          	beqz	a5,20000642 <PcdReq+0x18e>
					else if (((cmd == CMD_ANTICOLL1) || (cmd == CMD_ANTICOLL2) || (cmd == CMD_ANTICOLL3)) && g_nfca_pcd_send_buf[1] == 0x20) {
200007d6:	04d1c703          	lbu	a4,77(gp) # 2000174d <g_nfca_pcd_send_buf+0x1>
200007da:	02000793          	li	a5,32
200007de:	e6f712e3          	bne	a4,a5,20000642 <PcdReq+0x18e>
						if (ISO14443A_CHECK_BCC(g_nfca_pcd_recv_buf)) {
200007e2:	25c18713          	addi	a4,gp,604 # 2000195c <g_nfca_pcd_recv_buf>
200007e6:	00174683          	lbu	a3,1(a4)
200007ea:	00074783          	lbu	a5,0(a4)
200007ee:	8fb5                	xor	a5,a5,a3
200007f0:	00274683          	lbu	a3,2(a4)
200007f4:	8fb5                	xor	a5,a5,a3
200007f6:	00374683          	lbu	a3,3(a4)
200007fa:	00474703          	lbu	a4,4(a4)
200007fe:	8fb5                	xor	a5,a5,a3
20000800:	e4f709e3          	beq	a4,a5,20000652 <PcdReq+0x19e>
							res = PCD_BCC_ERROR;
20000804:	10200793          	li	a5,258
20000808:	b319                	j	2000050e <PcdReq+0x5a>
		else if ((g_nfca_pcd_recv_buf[0] & 0x10) && ((cmd == CMD_IBLOCK) || (cmd == CMD_RBLOCK))) {
2000080a:	0107f713          	andi	a4,a5,16
2000080e:	4781                	li	a5,0
20000810:	ce070fe3          	beqz	a4,2000050e <PcdReq+0x5a>
20000814:	4709                	li	a4,2
20000816:	00e40663          	beq	s0,a4,20000822 <PcdReq+0x36e>
2000081a:	0a000713          	li	a4,160
2000081e:	cee418e3          	bne	s0,a4,2000050e <PcdReq+0x5a>
				if(g_nfca_pcd_recv_buf_chain[i * sizeof(g_nfca_pcd_recv_buf)] == 0) {
20000822:	c4c1c703          	lbu	a4,-948(gp) # 2000134c <g_nfca_pcd_recv_buf_chain>
20000826:	c4c18793          	addi	a5,gp,-948 # 2000134c <g_nfca_pcd_recv_buf_chain>
2000082a:	c31d                	beqz	a4,20000850 <PcdReq+0x39c>
2000082c:	1007c703          	lbu	a4,256(a5)
20000830:	cf11                	beqz	a4,2000084c <PcdReq+0x398>
20000832:	2007c703          	lbu	a4,512(a5)
20000836:	cf0d                	beqz	a4,20000870 <PcdReq+0x3bc>
20000838:	3007c703          	lbu	a4,768(a5)
2000083c:	30000493          	li	s1,768
20000840:	cb01                	beqz	a4,20000850 <PcdReq+0x39c>
			res = PcdReq(CMD_RBLOCK, 0, 0); // we are ready, request the next part of the chained frame
20000842:	4601                	li	a2,0
20000844:	4581                	li	a1,0
20000846:	0a000513          	li	a0,160
2000084a:	b50d                	j	2000066c <PcdReq+0x1b8>
				if(g_nfca_pcd_recv_buf_chain[i * sizeof(g_nfca_pcd_recv_buf)] == 0) {
2000084c:	10000493          	li	s1,256
					for(int j = 0; j < sizeof(g_nfca_pcd_recv_buf); j++) {
20000850:	4701                	li	a4,0
20000852:	10000593          	li	a1,256
						g_nfca_pcd_recv_buf_chain[(i * sizeof(g_nfca_pcd_recv_buf)) +j] = g_nfca_pcd_recv_buf[j];
20000856:	00e60533          	add	a0,a2,a4
2000085a:	00054503          	lbu	a0,0(a0)
2000085e:	00e486b3          	add	a3,s1,a4
20000862:	96be                	add	a3,a3,a5
20000864:	00a68023          	sb	a0,0(a3)
					for(int j = 0; j < sizeof(g_nfca_pcd_recv_buf); j++) {
20000868:	0705                	addi	a4,a4,1
2000086a:	feb716e3          	bne	a4,a1,20000856 <PcdReq+0x3a2>
2000086e:	bfd1                	j	20000842 <PcdReq+0x38e>
				if(g_nfca_pcd_recv_buf_chain[i * sizeof(g_nfca_pcd_recv_buf)] == 0) {
20000870:	20000493          	li	s1,512
20000874:	bff1                	j	20000850 <PcdReq+0x39c>

20000876 <process_usb_packet>:
// main process loop functions

__HIGH_CODE
void process_usb_packet(void) {
	// Check if we have received a packet in the global buffer
	if( ((uint16_t*)gs_usb_data_buf)[0]  ) {
20000876:	55c1d703          	lhu	a4,1372(gp) # 20001c5c <gs_usb_data_buf>
2000087a:	c319                	beqz	a4,20000880 <process_usb_packet+0xa>
		// Handle specific commands here if needed (e.g. configuration)
		//

		// If we receive data but we aren't in card_interaction,
		// it might be a mistake or a re-sync. Clear the buffer.
		((uint16_t*)gs_usb_data_buf)[0] = 0;
2000087c:	54019e23          	sh	zero,1372(gp) # 20001c5c <gs_usb_data_buf>
	}
}
20000880:	8082                	ret

20000882 <send_heartbeat_if_free>:

__HIGH_CODE
void send_heartbeat_if_free(void) {
	const char *version = "nfca585 v1";
	// Only send if endpoint is free to avoid blocking
	if( !USBFSCTX.USBFS_Endp_Busy[USB_EP_TX] ) {
20000882:	200027b7          	lui	a5,0x20002
20000886:	e5c78793          	addi	a5,a5,-420 # 20001e5c <USBFSCTX>
2000088a:	0e17c783          	lbu	a5,225(a5)
2000088e:	eb89                	bnez	a5,200008a0 <send_heartbeat_if_free+0x1e>
		USBFS_SendEndpointNEW( USB_EP_TX, (uint8_t*)version, strlen(version), 1 );
20000890:	6509                	lui	a0,0x2
20000892:	45a9                	li	a1,10
20000894:	7b850513          	addi	a0,a0,1976 # 27b8 <string0+0x34>
20000898:	e0001317          	auipc	t1,0xe0001
2000089c:	69630067          	jr	1686(t1) # 1f2e <USBFS_SendEndpointNEW.constprop.0.isra.0>
	}
}
200008a0:	8082                	ret

200008a2 <usb_send_debug_if_free>:
	p[14] = (uint8_t)(R8_NFC_STATUS);
	USBFS_SendEndpointNEW( USB_EP_TX, p, sizeof(p), 1 );
	return 1;
#endif
	return 0;
}
200008a2:	4501                	li	a0,0
200008a4:	8082                	ret

200008a6 <usb_send_blocking>:

__HIGH_CODE
int usb_send_blocking(const uint8_t *data, uint16_t len, uint32_t timeout_ms) {
	uint32_t timeout = SysTick->CNTL + Ticks_from_Ms(timeout_ms);
200008a6:	e000f7b7          	lui	a5,0xe000f
200008aa:	4798                	lw	a4,8(a5)
200008ac:	67bd                	lui	a5,0xf
int usb_send_blocking(const uint8_t *data, uint16_t len, uint32_t timeout_ms) {
200008ae:	1101                	addi	sp,sp,-32
	uint32_t timeout = SysTick->CNTL + Ticks_from_Ms(timeout_ms);
200008b0:	3c078793          	addi	a5,a5,960 # f3c0 <ch585_grand_finale.c.9f3d4ca2+0xb92f>
int usb_send_blocking(const uint8_t *data, uint16_t len, uint32_t timeout_ms) {
200008b4:	c84a                	sw	s2,16(sp)
	uint32_t timeout = SysTick->CNTL + Ticks_from_Ms(timeout_ms);
200008b6:	02f60933          	mul	s2,a2,a5
int usb_send_blocking(const uint8_t *data, uint16_t len, uint32_t timeout_ms) {
200008ba:	c452                	sw	s4,8(sp)

	while (len) {
		uint16_t chunk = (len > 64) ? 64 : len;

		while (USBFSCTX.USBFS_Endp_Busy[USB_EP_TX]) {
200008bc:	20002a37          	lui	s4,0x20002
int usb_send_blocking(const uint8_t *data, uint16_t len, uint32_t timeout_ms) {
200008c0:	cc22                	sw	s0,24(sp)
200008c2:	c64e                	sw	s3,12(sp)
200008c4:	c256                	sw	s5,4(sp)
200008c6:	ce06                	sw	ra,28(sp)
200008c8:	ca26                	sw	s1,20(sp)
200008ca:	89aa                	mv	s3,a0
200008cc:	842e                	mv	s0,a1
	uint32_t timeout = SysTick->CNTL + Ticks_from_Ms(timeout_ms);
200008ce:	993a                	add	s2,s2,a4
		while (USBFSCTX.USBFS_Endp_Busy[USB_EP_TX]) {
200008d0:	e5ca0a13          	addi	s4,s4,-420 # 20001e5c <USBFSCTX>
			if (SysTick->CNTL >= timeout) {
200008d4:	e000fab7          	lui	s5,0xe000f
	while (len) {
200008d8:	ec19                	bnez	s0,200008f6 <usb_send_blocking+0x50>

		USBFS_SendEndpointNEW(USB_EP_TX, (uint8_t *)data, chunk, 1);
		data += chunk;
		len -= chunk;
	}
	return 1;
200008da:	4505                	li	a0,1
}
200008dc:	40f2                	lw	ra,28(sp)
200008de:	4462                	lw	s0,24(sp)
200008e0:	44d2                	lw	s1,20(sp)
200008e2:	4942                	lw	s2,16(sp)
200008e4:	49b2                	lw	s3,12(sp)
200008e6:	4a22                	lw	s4,8(sp)
200008e8:	4a92                	lw	s5,4(sp)
200008ea:	6105                	addi	sp,sp,32
200008ec:	8082                	ret
			if (SysTick->CNTL >= timeout) {
200008ee:	008aa783          	lw	a5,8(s5) # e000f008 <_eusrstack+0xbffef008>
200008f2:	0327f963          	bgeu	a5,s2,20000924 <usb_send_blocking+0x7e>
		while (USBFSCTX.USBFS_Endp_Busy[USB_EP_TX]) {
200008f6:	0e1a4783          	lbu	a5,225(s4)
200008fa:	fbf5                	bnez	a5,200008ee <usb_send_blocking+0x48>
		uint16_t chunk = (len > 64) ? 64 : len;
200008fc:	04000793          	li	a5,64
20000900:	84a2                	mv	s1,s0
20000902:	0087f463          	bgeu	a5,s0,2000090a <usb_send_blocking+0x64>
20000906:	04000493          	li	s1,64
2000090a:	04c2                	slli	s1,s1,0x10
2000090c:	80c1                	srli	s1,s1,0x10
		len -= chunk;
2000090e:	8c05                	sub	s0,s0,s1
		USBFS_SendEndpointNEW(USB_EP_TX, (uint8_t *)data, chunk, 1);
20000910:	854e                	mv	a0,s3
20000912:	85a6                	mv	a1,s1
		len -= chunk;
20000914:	0442                	slli	s0,s0,0x10
		USBFS_SendEndpointNEW(USB_EP_TX, (uint8_t *)data, chunk, 1);
20000916:	e0001097          	auipc	ra,0xe0001
2000091a:	618080e7          	jalr	1560(ra) # 1f2e <USBFS_SendEndpointNEW.constprop.0.isra.0>
		data += chunk;
2000091e:	99a6                	add	s3,s3,s1
		len -= chunk;
20000920:	8041                	srli	s0,s0,0x10
20000922:	bf5d                	j	200008d8 <usb_send_blocking+0x32>
				return 0;
20000924:	4501                	li	a0,0
20000926:	bf5d                	j	200008dc <usb_send_blocking+0x36>

20000928 <usb_send_ntag_version_packet>:

__HIGH_CODE
void usb_send_ntag_version_packet(int uid_len) {
20000928:	7179                	addi	sp,sp,-48
	uint8_t packet[1 +1 +10 +NTAG21X_VERSION_LEN];

	packet[0] = USB_PKT_NTAG_VERSION;
2000092a:	fa100793          	li	a5,-95
2000092e:	00f10623          	sb	a5,12(sp)
	packet[1] = uid_len;
	for (int i = 0; i < 10; ++i) {
		packet[2 +i] = (i < uid_len) ? gs_picc_uid[i] : 0;
20000932:	007c                	addi	a5,sp,12
void usb_send_ntag_version_packet(int uid_len) {
20000934:	86aa                	mv	a3,a0
	packet[1] = uid_len;
20000936:	00a106a3          	sb	a0,13(sp)
void usb_send_ntag_version_packet(int uid_len) {
2000093a:	d606                	sw	ra,44(sp)
	packet[1] = uid_len;
2000093c:	863e                	mv	a2,a5
	for (int i = 0; i < 10; ++i) {
2000093e:	4701                	li	a4,0
20000940:	853e                	mv	a0,a5
		packet[2 +i] = (i < uid_len) ? gs_picc_uid[i] : 0;
20000942:	c4018593          	addi	a1,gp,-960 # 20001340 <gs_picc_uid>
	for (int i = 0; i < 10; ++i) {
20000946:	48a9                	li	a7,10
		packet[2 +i] = (i < uid_len) ? gs_picc_uid[i] : 0;
20000948:	4801                	li	a6,0
2000094a:	00d75663          	bge	a4,a3,20000956 <usb_send_ntag_version_packet+0x2e>
2000094e:	00b70833          	add	a6,a4,a1
20000952:	00084803          	lbu	a6,0(a6)
20000956:	01060123          	sb	a6,2(a2)
	for (int i = 0; i < 10; ++i) {
2000095a:	0705                	addi	a4,a4,1
2000095c:	0605                	addi	a2,a2,1
2000095e:	ff1715e3          	bne	a4,a7,20000948 <usb_send_ntag_version_packet+0x20>
	}
	for (int i = 0; i < NTAG21X_VERSION_LEN; ++i) {
20000962:	4701                	li	a4,0
		packet[12 +i] = g_last_ntag_version[i];
20000964:	c1418693          	addi	a3,gp,-1004 # 20001314 <g_last_ntag_version>
	for (int i = 0; i < NTAG21X_VERSION_LEN; ++i) {
20000968:	4621                	li	a2,8
		packet[12 +i] = g_last_ntag_version[i];
2000096a:	00d705b3          	add	a1,a4,a3
2000096e:	0005c583          	lbu	a1,0(a1)
	for (int i = 0; i < NTAG21X_VERSION_LEN; ++i) {
20000972:	0705                	addi	a4,a4,1
20000974:	0785                	addi	a5,a5,1
		packet[12 +i] = g_last_ntag_version[i];
20000976:	00b785a3          	sb	a1,11(a5)
	for (int i = 0; i < NTAG21X_VERSION_LEN; ++i) {
2000097a:	fec718e3          	bne	a4,a2,2000096a <usb_send_ntag_version_packet+0x42>
	}

	usb_send_blocking(packet, sizeof(packet), 50);
2000097e:	03200613          	li	a2,50
20000982:	45d1                	li	a1,20
20000984:	370d                	jal	200008a6 <usb_send_blocking>
}
20000986:	50b2                	lw	ra,44(sp)
20000988:	6145                	addi	sp,sp,48
2000098a:	8082                	ret

2000098c <usb_send_ntag_page_packet>:

__HIGH_CODE
void usb_send_ntag_page_packet(uint8_t start_page, const uint8_t *page_data, uint8_t page_count) {
2000098c:	7179                	addi	sp,sp,-48
	uint8_t packet[3 +(4 *4)];
	uint8_t copy_len = page_count * 4;

	packet[0] = USB_PKT_NTAG_PAGE_DATA;
2000098e:	fa200793          	li	a5,-94
	uint8_t copy_len = page_count * 4;
20000992:	00261693          	slli	a3,a2,0x2
20000996:	0078                	addi	a4,sp,12
	packet[0] = USB_PKT_NTAG_PAGE_DATA;
20000998:	00f10623          	sb	a5,12(sp)
	packet[1] = start_page;
2000099c:	00a106a3          	sb	a0,13(sp)
void usb_send_ntag_page_packet(uint8_t start_page, const uint8_t *page_data, uint8_t page_count) {
200009a0:	d606                	sw	ra,44(sp)
	uint8_t copy_len = page_count * 4;
200009a2:	0ff6f693          	zext.b	a3,a3
	packet[2] = page_count;
200009a6:	00c10723          	sb	a2,14(sp)
	for (int i = 0; i < 16; ++i) {
200009aa:	4781                	li	a5,0
200009ac:	853a                	mv	a0,a4
200009ae:	4841                	li	a6,16
		packet[3 +i] = (i < copy_len) ? page_data[i] : 0;
200009b0:	4601                	li	a2,0
200009b2:	00d7d663          	bge	a5,a3,200009be <usb_send_ntag_page_packet+0x32>
200009b6:	00f58633          	add	a2,a1,a5
200009ba:	00064603          	lbu	a2,0(a2)
200009be:	00c701a3          	sb	a2,3(a4)
	for (int i = 0; i < 16; ++i) {
200009c2:	0785                	addi	a5,a5,1
200009c4:	0705                	addi	a4,a4,1
200009c6:	ff0795e3          	bne	a5,a6,200009b0 <usb_send_ntag_page_packet+0x24>
	}

	usb_send_blocking(packet, sizeof(packet), 50);
200009ca:	03200613          	li	a2,50
200009ce:	45cd                	li	a1,19
200009d0:	3dd9                	jal	200008a6 <usb_send_blocking>
}
200009d2:	50b2                	lw	ra,44(sp)
200009d4:	6145                	addi	sp,sp,48
200009d6:	8082                	ret

200009d8 <usb_send_ntag_done_packet>:

__HIGH_CODE
void usb_send_ntag_done_packet(uint8_t status_code) {
200009d8:	1101                	addi	sp,sp,-32
	uint8_t packet[2] = { USB_PKT_NTAG_DONE, status_code };
200009da:	00a106a3          	sb	a0,13(sp)
200009de:	fa300793          	li	a5,-93
	usb_send_blocking(packet, sizeof(packet), 50);
200009e2:	0068                	addi	a0,sp,12
200009e4:	03200613          	li	a2,50
200009e8:	4589                	li	a1,2
void usb_send_ntag_done_packet(uint8_t status_code) {
200009ea:	ce06                	sw	ra,28(sp)
	uint8_t packet[2] = { USB_PKT_NTAG_DONE, status_code };
200009ec:	00f10623          	sb	a5,12(sp)
	usb_send_blocking(packet, sizeof(packet), 50);
200009f0:	3d5d                	jal	200008a6 <usb_send_blocking>
}
200009f2:	40f2                	lw	ra,28(sp)
200009f4:	6105                	addi	sp,sp,32
200009f6:	8082                	ret

200009f8 <ntag_get_version>:

__HIGH_CODE
int ntag_get_version(void) {
200009f8:	1141                	addi	sp,sp,-16
200009fa:	c422                	sw	s0,8(sp)
	g_nfca_pcd_send_buf[0] = CMD_T2T_GET_VERSION;
200009fc:	06000793          	li	a5,96
20000a00:	04f18623          	sb	a5,76(gp) # 2000174c <g_nfca_pcd_send_buf>
	ISO14443ACalOddParityBit(g_nfca_pcd_send_buf, g_nfca_parity_buf, 1);
20000a04:	4605                	li	a2,1
20000a06:	04c18513          	addi	a0,gp,76 # 2000174c <g_nfca_pcd_send_buf>
20000a0a:	15c18593          	addi	a1,gp,348 # 2000185c <g_nfca_parity_buf>
int ntag_get_version(void) {
20000a0e:	c606                	sw	ra,12(sp)
	ISO14443ACalOddParityBit(g_nfca_pcd_send_buf, g_nfca_parity_buf, 1);
20000a10:	3cb5                	jal	2000048c <ISO14443ACalOddParityBit>
	R16_NFC_TMR = (uint16_t)ticks;
20000a12:	7761                	lui	a4,0xffff8
20000a14:	4000e7b7          	lui	a5,0x4000e
20000a18:	6c470713          	addi	a4,a4,1732 # ffff86c4 <_eusrstack+0xdffd86c4>
20000a1c:	00e79823          	sh	a4,16(a5) # 4000e010 <_eusrstack+0x1ffee010>
	if (data_bits_num <= 3) {
20000a20:	4521                	li	a0,8
20000a22:	e0001097          	auipc	ra,0xe0001
20000a26:	d0a080e7          	jalr	-758(ra) # 172c <nfca_pcd_comm.part.0.constprop.0>
	nfca_pcd_wait_ms(PCD_T2T_OVER_TIME);

	if (nfca_pcd_comm(8, NFCA_PCD_REC_MODE_NORMAL, 0) != 0) {
20000a2a:	e53d                	bnez	a0,20000a98 <ntag_get_version+0xa0>
		return 0;
	}
	if (nfca_pcd_wait_comm_end() != NFCA_PCD_CONTROLLER_STATE_DONE) {
20000a2c:	e0001097          	auipc	ra,0xe0001
20000a30:	c20080e7          	jalr	-992(ra) # 164c <nfca_pcd_wait_comm_end>
20000a34:	4795                	li	a5,5
20000a36:	06f51163          	bne	a0,a5,20000a98 <ntag_get_version+0xa0>
		return 0;
	}
	if ((g_nfca_pcd_recv_bits % 9) != 0) {
20000a3a:	c301a783          	lw	a5,-976(gp) # 20001330 <g_nfca_pcd_recv_bits>
20000a3e:	46a5                	li	a3,9
20000a40:	02d7f7b3          	remu	a5,a5,a3
20000a44:	ebb1                	bnez	a5,20000a98 <ntag_get_version+0xa0>
		return 0;
	}

	int nbytes = g_nfca_pcd_recv_bits / 9;
20000a46:	c301a783          	lw	a5,-976(gp) # 20001330 <g_nfca_pcd_recv_bits>
	if (nbytes != (NTAG21X_VERSION_LEN +2)) {
20000a4a:	4721                	li	a4,8
20000a4c:	fa678793          	addi	a5,a5,-90
20000a50:	04f76463          	bltu	a4,a5,20000a98 <ntag_get_version+0xa0>
		return 0;
	}
	if (!ISO14443ACheckOddParityBit(g_nfca_pcd_recv_buf, g_nfca_parity_buf, nbytes)) {
20000a54:	15c18593          	addi	a1,gp,348 # 2000185c <g_nfca_parity_buf>
20000a58:	4629                	li	a2,10
20000a5a:	25c18513          	addi	a0,gp,604 # 2000195c <g_nfca_pcd_recv_buf>
20000a5e:	3af5                	jal	2000045a <ISO14443ACheckOddParityBit>
20000a60:	cd05                	beqz	a0,20000a98 <ntag_get_version+0xa0>
		return 0;
	}
	if (ISO14443_CRCA(g_nfca_pcd_recv_buf, nbytes) != 0) {
20000a62:	45a9                	li	a1,10
20000a64:	25c18513          	addi	a0,gp,604 # 2000195c <g_nfca_pcd_recv_buf>
20000a68:	32b9                	jal	200003b6 <ISO14443_CRCA>
20000a6a:	e51d                	bnez	a0,20000a98 <ntag_get_version+0xa0>
		return 0;
	}

	for (int i = 0; i < NTAG21X_VERSION_LEN; ++i) {
20000a6c:	4781                	li	a5,0
		g_last_ntag_version[i] = g_nfca_pcd_recv_buf[i];
20000a6e:	c1418713          	addi	a4,gp,-1004 # 20001314 <g_last_ntag_version>
20000a72:	25c18413          	addi	s0,gp,604 # 2000195c <g_nfca_pcd_recv_buf>
	for (int i = 0; i < NTAG21X_VERSION_LEN; ++i) {
20000a76:	46a1                	li	a3,8
		g_last_ntag_version[i] = g_nfca_pcd_recv_buf[i];
20000a78:	008785b3          	add	a1,a5,s0
20000a7c:	0005c583          	lbu	a1,0(a1)
20000a80:	00e78633          	add	a2,a5,a4
	for (int i = 0; i < NTAG21X_VERSION_LEN; ++i) {
20000a84:	0785                	addi	a5,a5,1
		g_last_ntag_version[i] = g_nfca_pcd_recv_buf[i];
20000a86:	00b60023          	sb	a1,0(a2)
	for (int i = 0; i < NTAG21X_VERSION_LEN; ++i) {
20000a8a:	fed797e3          	bne	a5,a3,20000a78 <ntag_get_version+0x80>
	}

	return 1;
20000a8e:	4505                	li	a0,1
}
20000a90:	40b2                	lw	ra,12(sp)
20000a92:	4422                	lw	s0,8(sp)
20000a94:	0141                	addi	sp,sp,16
20000a96:	8082                	ret
		return 0;
20000a98:	4501                	li	a0,0
20000a9a:	bfdd                	j	20000a90 <ntag_get_version+0x98>

20000a9c <ntag_is_ntag215>:

__HIGH_CODE
int ntag_is_ntag215(void) {
	return (g_last_ntag_version[1] == 0x04) &&
20000a9c:	c1418793          	addi	a5,gp,-1004 # 20001314 <g_last_ntag_version>
	       (g_last_ntag_version[2] == 0x04) &&
	       (g_last_ntag_version[3] == 0x02) &&
20000aa0:	0017c703          	lbu	a4,1(a5)
20000aa4:	4691                	li	a3,4
20000aa6:	4501                	li	a0,0
20000aa8:	02d71063          	bne	a4,a3,20000ac8 <ntag_is_ntag215+0x2c>
	return (g_last_ntag_version[1] == 0x04) &&
20000aac:	0027c683          	lbu	a3,2(a5)
20000ab0:	00e69c63          	bne	a3,a4,20000ac8 <ntag_is_ntag215+0x2c>
	       (g_last_ntag_version[2] == 0x04) &&
20000ab4:	0037c683          	lbu	a3,3(a5)
20000ab8:	4709                	li	a4,2
20000aba:	00e69763          	bne	a3,a4,20000ac8 <ntag_is_ntag215+0x2c>
	       (g_last_ntag_version[3] == 0x02) &&
20000abe:	0067c503          	lbu	a0,6(a5)
20000ac2:	153d                	addi	a0,a0,-17
20000ac4:	00153513          	seqz	a0,a0
	       (g_last_ntag_version[6] == 0x11);
}
20000ac8:	8082                	ret

20000aca <ntag_read_pages>:

__HIGH_CODE
int ntag_read_pages(uint8_t start_page) {
20000aca:	1141                	addi	sp,sp,-16
20000acc:	c422                	sw	s0,8(sp)
20000ace:	c606                	sw	ra,12(sp)
20000ad0:	c226                	sw	s1,4(sp)
	g_nfca_pcd_send_buf[0] = CMD_T2T_READ;
20000ad2:	04c18793          	addi	a5,gp,76 # 2000174c <g_nfca_pcd_send_buf>
20000ad6:	03000713          	li	a4,48
	g_nfca_pcd_send_buf[1] = start_page;
20000ada:	00a780a3          	sb	a0,1(a5)
	ISO14443AAppendCRCA(g_nfca_pcd_send_buf, 2);
20000ade:	4589                	li	a1,2
20000ae0:	04c18513          	addi	a0,gp,76 # 2000174c <g_nfca_pcd_send_buf>
	g_nfca_pcd_send_buf[0] = CMD_T2T_READ;
20000ae4:	00e78023          	sb	a4,0(a5)
	ISO14443AAppendCRCA(g_nfca_pcd_send_buf, 2);
20000ae8:	917ff0ef          	jal	200003fe <ISO14443AAppendCRCA>
	ISO14443ACalOddParityBit(g_nfca_pcd_send_buf, g_nfca_parity_buf, 4);
20000aec:	04c18513          	addi	a0,gp,76 # 2000174c <g_nfca_pcd_send_buf>
20000af0:	4611                	li	a2,4
20000af2:	15c18593          	addi	a1,gp,348 # 2000185c <g_nfca_parity_buf>
20000af6:	3a59                	jal	2000048c <ISO14443ACalOddParityBit>
	R16_NFC_TMR = (uint16_t)ticks;
20000af8:	7761                	lui	a4,0xffff8
20000afa:	4000e7b7          	lui	a5,0x4000e
20000afe:	6c470713          	addi	a4,a4,1732 # ffff86c4 <_eusrstack+0xdffd86c4>
20000b02:	00e79823          	sh	a4,16(a5) # 4000e010 <_eusrstack+0x1ffee010>
	if (data_bits_num <= 3) {
20000b06:	02000513          	li	a0,32
20000b0a:	e0001097          	auipc	ra,0xe0001
20000b0e:	c22080e7          	jalr	-990(ra) # 172c <nfca_pcd_comm.part.0.constprop.0>
	nfca_pcd_wait_ms(PCD_T2T_OVER_TIME);

	if (nfca_pcd_comm(32, NFCA_PCD_REC_MODE_NORMAL, 0) != 0) {
20000b12:	c519                	beqz	a0,20000b20 <ntag_read_pages+0x56>
		return 0;
20000b14:	4501                	li	a0,0
	if (!ISO14443ACheckOddParityBit(g_nfca_pcd_recv_buf, g_nfca_parity_buf, nbytes)) {
		return 0;
	}

	return ISO14443_CRCA(g_nfca_pcd_recv_buf, nbytes) == 0;
}
20000b16:	40b2                	lw	ra,12(sp)
20000b18:	4422                	lw	s0,8(sp)
20000b1a:	4492                	lw	s1,4(sp)
20000b1c:	0141                	addi	sp,sp,16
20000b1e:	8082                	ret
	if (nfca_pcd_wait_comm_end() != NFCA_PCD_CONTROLLER_STATE_DONE) {
20000b20:	e0001097          	auipc	ra,0xe0001
20000b24:	b2c080e7          	jalr	-1236(ra) # 164c <nfca_pcd_wait_comm_end>
20000b28:	4795                	li	a5,5
20000b2a:	fef515e3          	bne	a0,a5,20000b14 <ntag_read_pages+0x4a>
	if ((g_nfca_pcd_recv_bits % 9) != 0) {
20000b2e:	c301a783          	lw	a5,-976(gp) # 20001330 <g_nfca_pcd_recv_bits>
20000b32:	46a5                	li	a3,9
20000b34:	02d7f7b3          	remu	a5,a5,a3
20000b38:	fff1                	bnez	a5,20000b14 <ntag_read_pages+0x4a>
	int nbytes = g_nfca_pcd_recv_bits / 9;
20000b3a:	c301a783          	lw	a5,-976(gp) # 20001330 <g_nfca_pcd_recv_bits>
	if (nbytes != (NTAG_T2T_READ_BYTES +2)) {
20000b3e:	4721                	li	a4,8
20000b40:	f5e78793          	addi	a5,a5,-162
20000b44:	fcf768e3          	bltu	a4,a5,20000b14 <ntag_read_pages+0x4a>
	if (!ISO14443ACheckOddParityBit(g_nfca_pcd_recv_buf, g_nfca_parity_buf, nbytes)) {
20000b48:	4649                	li	a2,18
20000b4a:	15c18593          	addi	a1,gp,348 # 2000185c <g_nfca_parity_buf>
20000b4e:	25c18513          	addi	a0,gp,604 # 2000195c <g_nfca_pcd_recv_buf>
20000b52:	909ff0ef          	jal	2000045a <ISO14443ACheckOddParityBit>
20000b56:	dd5d                	beqz	a0,20000b14 <ntag_read_pages+0x4a>
	return ISO14443_CRCA(g_nfca_pcd_recv_buf, nbytes) == 0;
20000b58:	45c9                	li	a1,18
20000b5a:	25c18513          	addi	a0,gp,604 # 2000195c <g_nfca_pcd_recv_buf>
20000b5e:	859ff0ef          	jal	200003b6 <ISO14443_CRCA>
20000b62:	00153513          	seqz	a0,a0
20000b66:	bf45                	j	20000b16 <ntag_read_pages+0x4c>

20000b68 <ntag_dump_read_only>:

__HIGH_CODE
void ntag_dump_read_only(int uid_len) {
20000b68:	711d                	addi	sp,sp,-96
20000b6a:	0878                	addi	a4,sp,28
20000b6c:	cca2                	sw	s0,88(sp)
20000b6e:	c2d6                	sw	s5,68(sp)
20000b70:	ce86                	sw	ra,92(sp)
20000b72:	caa6                	sw	s1,84(sp)
20000b74:	c8ca                	sw	s2,80(sp)
20000b76:	c6ce                	sw	s3,76(sp)
20000b78:	c4d2                	sw	s4,72(sp)
20000b7a:	c0da                	sw	s6,64(sp)
20000b7c:	842a                	mv	s0,a0
	uint8_t page_starts[(NTAG215_TOTAL_PAGES +3) /4];
	int page_start_count = 0;

	for (uint8_t page = 0; page <= 128; page += 4) {
20000b7e:	4781                	li	a5,0
20000b80:	8aba                	mv	s5,a4
20000b82:	08400693          	li	a3,132
		page_starts[page_start_count++] = page;
20000b86:	00f70023          	sb	a5,0(a4)
	for (uint8_t page = 0; page <= 128; page += 4) {
20000b8a:	0791                	addi	a5,a5,4
20000b8c:	0ff7f793          	zext.b	a5,a5
20000b90:	0705                	addi	a4,a4,1
20000b92:	fed79ae3          	bne	a5,a3,20000b86 <ntag_dump_read_only+0x1e>
	}
	page_starts[page_start_count++] = 131;
20000b96:	f8300793          	li	a5,-125
20000b9a:	02f10ea3          	sb	a5,61(sp)

	if (!ntag_get_version()) {
20000b9e:	3da9                	jal	200009f8 <ntag_get_version>
20000ba0:	ed01                	bnez	a0,20000bb8 <ntag_dump_read_only+0x50>
		usb_send_ntag_done_packet(1);
20000ba2:	4505                	li	a0,1

		usb_send_ntag_page_packet(start_page, g_nfca_pcd_recv_buf, valid_pages);
	}

	usb_send_ntag_done_packet(0);
}
20000ba4:	4466                	lw	s0,88(sp)
20000ba6:	40f6                	lw	ra,92(sp)
20000ba8:	44d6                	lw	s1,84(sp)
20000baa:	4946                	lw	s2,80(sp)
20000bac:	49b6                	lw	s3,76(sp)
20000bae:	4a26                	lw	s4,72(sp)
20000bb0:	4a96                	lw	s5,68(sp)
20000bb2:	4b06                	lw	s6,64(sp)
20000bb4:	6125                	addi	sp,sp,96
	usb_send_ntag_done_packet(0);
20000bb6:	b50d                	j	200009d8 <usb_send_ntag_done_packet>
	if (!ntag_is_ntag215()) {
20000bb8:	35d5                	jal	20000a9c <ntag_is_ntag215>
20000bba:	e119                	bnez	a0,20000bc0 <ntag_dump_read_only+0x58>
		usb_send_ntag_done_packet(2);
20000bbc:	4509                	li	a0,2
20000bbe:	b7dd                	j	20000ba4 <ntag_dump_read_only+0x3c>
	usb_send_ntag_version_packet(uid_len);
20000bc0:	8522                	mv	a0,s0
20000bc2:	339d                	jal	20000928 <usb_send_ntag_version_packet>
	for (int i = 0; i < page_start_count; ++i) {
20000bc4:	4401                	li	s0,0
		if ((start_page +4) > NTAG215_TOTAL_PAGES) {
20000bc6:	08300a13          	li	s4,131
			valid_pages = NTAG215_TOTAL_PAGES - start_page;
20000bca:	f8700b13          	li	s6,-121
	for (int i = 0; i < page_start_count; ++i) {
20000bce:	02200913          	li	s2,34
		uint8_t start_page = page_starts[i];
20000bd2:	008a87b3          	add	a5,s5,s0
20000bd6:	0007c483          	lbu	s1,0(a5)
		uint8_t valid_pages = 4;
20000bda:	4611                	li	a2,4
		if ((start_page +4) > NTAG215_TOTAL_PAGES) {
20000bdc:	009a7663          	bgeu	s4,s1,20000be8 <ntag_dump_read_only+0x80>
			valid_pages = NTAG215_TOTAL_PAGES - start_page;
20000be0:	409b0633          	sub	a2,s6,s1
20000be4:	0ff67613          	zext.b	a2,a2
		if (!ntag_read_pages(start_page)) {
20000be8:	8526                	mv	a0,s1
20000bea:	c632                	sw	a2,12(sp)
20000bec:	3df9                	jal	20000aca <ntag_read_pages>
20000bee:	4632                	lw	a2,12(sp)
20000bf0:	e119                	bnez	a0,20000bf6 <ntag_dump_read_only+0x8e>
			usb_send_ntag_done_packet(3);
20000bf2:	450d                	li	a0,3
20000bf4:	bf45                	j	20000ba4 <ntag_dump_read_only+0x3c>
		usb_send_ntag_page_packet(start_page, g_nfca_pcd_recv_buf, valid_pages);
20000bf6:	25c18593          	addi	a1,gp,604 # 2000195c <g_nfca_pcd_recv_buf>
20000bfa:	8526                	mv	a0,s1
	for (int i = 0; i < page_start_count; ++i) {
20000bfc:	0405                	addi	s0,s0,1
		usb_send_ntag_page_packet(start_page, g_nfca_pcd_recv_buf, valid_pages);
20000bfe:	3379                	jal	2000098c <usb_send_ntag_page_packet>
	for (int i = 0; i < page_start_count; ++i) {
20000c00:	fd2419e3          	bne	s0,s2,20000bd2 <ntag_dump_read_only+0x6a>
	usb_send_ntag_done_packet(0);
20000c04:	4501                	li	a0,0
20000c06:	bf79                	j	20000ba4 <ntag_dump_read_only+0x3c>

20000c08 <card_interaction>:

__HIGH_CODE
void card_interaction(int uid_len, int sak) {
	int iso14443_3 = (sak == 0x20);
	int iso14443_3_devtest_jcop = (sak == 0x00 && gs_picc_uid[0] == 0x00);
20000c08:	e589                	bnez	a1,20000c12 <card_interaction+0xa>
20000c0a:	c401c783          	lbu	a5,-960(gp) # 20001340 <gs_picc_uid>
20000c0e:	c791                	beqz	a5,20000c1a <card_interaction+0x12>
	int iso14443_3_type2 = (sak == 0x00 && gs_picc_uid[0] != 0x00);
	uint32_t timeout = 0;

	if (iso14443_3_type2) {
		ntag_dump_read_only(uid_len);
20000c10:	bfa1                	j	20000b68 <ntag_dump_read_only>
		return;
	}

	if(iso14443_3 || iso14443_3_devtest_jcop) {
20000c12:	02000793          	li	a5,32
20000c16:	0cf59963          	bne	a1,a5,20000ce8 <card_interaction+0xe0>
void card_interaction(int uid_len, int sak) {
20000c1a:	1101                	addi	sp,sp,-32
		if(PcdReq(CMD_RATS, 0, 0) == PCD_NO_ERROR) {
20000c1c:	4601                	li	a2,0
20000c1e:	4581                	li	a1,0
20000c20:	0e000513          	li	a0,224
void card_interaction(int uid_len, int sak) {
20000c24:	ce06                	sw	ra,28(sp)
20000c26:	cc22                	sw	s0,24(sp)
20000c28:	ca26                	sw	s1,20(sp)
20000c2a:	c84a                	sw	s2,16(sp)
20000c2c:	c64e                	sw	s3,12(sp)
20000c2e:	c452                	sw	s4,8(sp)
20000c30:	c256                	sw	s5,4(sp)
		if(PcdReq(CMD_RATS, 0, 0) == PCD_NO_ERROR) {
20000c32:	883ff0ef          	jal	200004b4 <PcdReq>
20000c36:	e91d                	bnez	a0,20000c6c <card_interaction+0x64>
			// Send RATS response to PC
			usb_send_blocking((const uint8_t *)g_nfca_pcd_recv_buf, (uint16_t)(g_nfca_pcd_recv_bits / 9), 100);
20000c38:	c301a583          	lw	a1,-976(gp) # 20001330 <g_nfca_pcd_recv_bits>
20000c3c:	47a5                	li	a5,9
20000c3e:	02f5d5b3          	divu	a1,a1,a5
20000c42:	06400613          	li	a2,100
20000c46:	25c18513          	addi	a0,gp,604 # 2000195c <g_nfca_pcd_recv_buf>
			// Set a timeout for the PC to reply
			timeout = SysTick->CNTL + Ticks_from_Ms(PCD_APDU_OVER_TIME);

			// While waiting for PC response, we block here because timing is strict
			// for the NFC field. Losing the field usually kills the card state.
			while(SysTick->CNTL < timeout) {
20000c4a:	e000fa37          	lui	s4,0xe000f
			usb_send_blocking((const uint8_t *)g_nfca_pcd_recv_buf, (uint16_t)(g_nfca_pcd_recv_bits / 9), 100);
20000c4e:	05c2                	slli	a1,a1,0x10
20000c50:	81c1                	srli	a1,a1,0x10
20000c52:	3991                	jal	200008a6 <usb_send_blocking>
			timeout = SysTick->CNTL + Ticks_from_Ms(PCD_APDU_OVER_TIME);
20000c54:	e000f7b7          	lui	a5,0xe000f
20000c58:	4780                	lw	s0,8(a5)
20000c5a:	005f37b7          	lui	a5,0x5f3
20000c5e:	70078793          	addi	a5,a5,1792 # 5f3700 <ch585_grand_finale.c.9f3d4ca2+0x5efc6f>
20000c62:	943e                	add	s0,s0,a5
			while(SysTick->CNTL < timeout) {
20000c64:	008a2783          	lw	a5,8(s4) # e000f008 <_eusrstack+0xbffef008>
20000c68:	0087eb63          	bltu	a5,s0,20000c7e <card_interaction+0x76>
					((uint16_t*)gs_usb_data_buf)[0] = 0;
				}
			}
		}
	}
}
20000c6c:	40f2                	lw	ra,28(sp)
20000c6e:	4462                	lw	s0,24(sp)
20000c70:	44d2                	lw	s1,20(sp)
20000c72:	4942                	lw	s2,16(sp)
20000c74:	49b2                	lw	s3,12(sp)
20000c76:	4a22                	lw	s4,8(sp)
20000c78:	4a92                	lw	s5,4(sp)
20000c7a:	6105                	addi	sp,sp,32
20000c7c:	8082                	ret
				if( *(volatile uint16_t*)gs_usb_data_buf ) {
20000c7e:	55c1d783          	lhu	a5,1372(gp) # 20001c5c <gs_usb_data_buf>
20000c82:	d3ed                	beqz	a5,20000c64 <card_interaction+0x5c>
					if( PcdReq(CMD_IBLOCK, &gs_usb_data_buf[2], ((uint16_t*)gs_usb_data_buf)[0]) == PCD_NO_ERROR ) {
20000c84:	55c1d603          	lhu	a2,1372(gp) # 20001c5c <gs_usb_data_buf>
20000c88:	55e18593          	addi	a1,gp,1374 # 20001c5e <gs_usb_data_buf+0x2>
20000c8c:	4509                	li	a0,2
20000c8e:	827ff0ef          	jal	200004b4 <PcdReq>
20000c92:	e921                	bnez	a0,20000ce2 <card_interaction+0xda>
20000c94:	c4c18413          	addi	s0,gp,-948 # 2000134c <g_nfca_pcd_recv_buf_chain>
20000c98:	40040a93          	addi	s5,s0,1024
							if(g_nfca_pcd_recv_buf_chain[i * sizeof(g_nfca_pcd_recv_buf)]) {
20000c9c:	00044783          	lbu	a5,0(s0)
20000ca0:	cf89                	beqz	a5,20000cba <card_interaction+0xb2>
								usb_send_blocking(&g_nfca_pcd_recv_buf_chain[i * sizeof(g_nfca_pcd_recv_buf)], (uint16_t)sizeof(g_nfca_pcd_recv_buf), 100);
20000ca2:	8522                	mv	a0,s0
20000ca4:	06400613          	li	a2,100
20000ca8:	10000593          	li	a1,256
20000cac:	3eed                	jal	200008a6 <usb_send_blocking>
						for(int i = 0; i < NFCA_PCD_CHAINING_BUFFERS; i++) {
20000cae:	10040413          	addi	s0,s0,256
								g_nfca_pcd_recv_buf_chain[i * sizeof(g_nfca_pcd_recv_buf)] = 0;
20000cb2:	f0040023          	sb	zero,-256(s0)
						for(int i = 0; i < NFCA_PCD_CHAINING_BUFFERS; i++) {
20000cb6:	ff5413e3          	bne	s0,s5,20000c9c <card_interaction+0x94>
						usb_send_blocking((const uint8_t *)g_nfca_pcd_recv_buf, (uint16_t)(g_nfca_pcd_recv_bits / 9), 100);
20000cba:	c301a583          	lw	a1,-976(gp) # 20001330 <g_nfca_pcd_recv_bits>
20000cbe:	47a5                	li	a5,9
20000cc0:	06400613          	li	a2,100
20000cc4:	02f5d5b3          	divu	a1,a1,a5
20000cc8:	25c18513          	addi	a0,gp,604 # 2000195c <g_nfca_pcd_recv_buf>
20000ccc:	05c2                	slli	a1,a1,0x10
20000cce:	81c1                	srli	a1,a1,0x10
20000cd0:	3ed9                	jal	200008a6 <usb_send_blocking>
						timeout = SysTick->CNTL + Ticks_from_Ms(PCD_APDU_OVER_TIME);
20000cd2:	e000f7b7          	lui	a5,0xe000f
20000cd6:	4780                	lw	s0,8(a5)
20000cd8:	005f37b7          	lui	a5,0x5f3
20000cdc:	70078793          	addi	a5,a5,1792 # 5f3700 <ch585_grand_finale.c.9f3d4ca2+0x5efc6f>
20000ce0:	943e                	add	s0,s0,a5
					((uint16_t*)gs_usb_data_buf)[0] = 0;
20000ce2:	54019e23          	sh	zero,1372(gp) # 20001c5c <gs_usb_data_buf>
20000ce6:	bfbd                	j	20000c64 <card_interaction+0x5c>
20000ce8:	8082                	ret

20000cea <main_task_loop>:

__HIGH_CODE
void main_task_loop() {
20000cea:	711d                	addi	sp,sp,-96
20000cec:	ce86                	sw	ra,92(sp)
20000cee:	cca2                	sw	s0,88(sp)
20000cf0:	caa6                	sw	s1,84(sp)
20000cf2:	c8ca                	sw	s2,80(sp)
20000cf4:	c6ce                	sw	s3,76(sp)
20000cf6:	c4d2                	sw	s4,72(sp)
20000cf8:	c2d6                	sw	s5,68(sp)
20000cfa:	c0da                	sw	s6,64(sp)
20000cfc:	de5e                	sw	s7,60(sp)
20000cfe:	dc62                	sw	s8,56(sp)
20000d00:	da66                	sw	s9,52(sp)
20000d02:	d86a                	sw	s10,48(sp)
20000d04:	d66e                	sw	s11,44(sp)
	tkey_cfg = R8_TKEY_CFG;
20000d06:	400017b7          	lui	a5,0x40001
	sensor = R8_TEM_SENSOR;
20000d0a:	40001737          	lui	a4,0x40001
	tkey_cfg = R8_TKEY_CFG;
20000d0e:	0577c603          	lbu	a2,87(a5) # 40001057 <_eusrstack+0x1ffe1057>
	channel = R8_ADC_CHANNEL;
20000d12:	400016b7          	lui	a3,0x40001
	sensor = R8_TEM_SENSOR;
20000d16:	05b74803          	lbu	a6,91(a4) # 4000105b <_eusrstack+0x1ffe105b>
	config = R8_ADC_CFG;
20000d1a:	40001737          	lui	a4,0x40001
	channel = R8_ADC_CHANNEL;
20000d1e:	0586c503          	lbu	a0,88(a3) # 40001058 <_eusrstack+0x1ffe1058>
	config = R8_ADC_CFG;
20000d22:	05974583          	lbu	a1,89(a4) # 40001059 <_eusrstack+0x1ffe1059>
	R8_TKEY_CFG &= ~RB_TKEY_PWR_ON;
20000d26:	0577c883          	lbu	a7,87(a5)
	tkey_cfg = R8_TKEY_CFG;
20000d2a:	0ff67613          	zext.b	a2,a2
	sensor = R8_TEM_SENSOR;
20000d2e:	0ff87813          	zext.b	a6,a6
	R8_TKEY_CFG &= ~RB_TKEY_PWR_ON;
20000d32:	0fe8f893          	andi	a7,a7,254
20000d36:	05178ba3          	sb	a7,87(a5)
	R8_ADC_CHANNEL = CH_INTE_VBAT;
20000d3a:	47b9                	li	a5,14
20000d3c:	04f68c23          	sb	a5,88(a3)
	R8_ADC_CFG = RB_ADC_POWER_ON | RB_ADC_BUF_EN | (0 << 4);
20000d40:	478d                	li	a5,3
20000d42:	04f70ca3          	sb	a5,89(a4)
	R8_ADC_CONVERT &= ~RB_ADC_PGA_GAIN2;
20000d46:	400017b7          	lui	a5,0x40001
20000d4a:	05a7c703          	lbu	a4,90(a5) # 4000105a <_eusrstack+0x1ffe105a>
20000d4e:	05a78793          	addi	a5,a5,90
	channel = R8_ADC_CHANNEL;
20000d52:	0ff57513          	zext.b	a0,a0
	R8_ADC_CONVERT &= ~RB_ADC_PGA_GAIN2;
20000d56:	0fd77713          	andi	a4,a4,253
20000d5a:	00e78023          	sb	a4,0(a5)
	R8_ADC_CONVERT |= (3 << 4);
20000d5e:	0007c703          	lbu	a4,0(a5)
	config = R8_ADC_CFG;
20000d62:	0ff5f593          	zext.b	a1,a1
	R8_ADC_CONVERT |= (3 << 4);
20000d66:	03076713          	ori	a4,a4,48
20000d6a:	00e78023          	sb	a4,0(a5)
	R8_ADC_CONVERT |= RB_ADC_START;
20000d6e:	0007c703          	lbu	a4,0(a5)
20000d72:	00176713          	ori	a4,a4,1
20000d76:	00e78023          	sb	a4,0(a5)
	while (R8_ADC_CONVERT & RB_ADC_START);
20000d7a:	0007c703          	lbu	a4,0(a5)
20000d7e:	8b05                	andi	a4,a4,1
20000d80:	ff6d                	bnez	a4,20000d7a <main_task_loop+0x90>
	adc_data = R16_ADC_DATA;
20000d82:	400017b7          	lui	a5,0x40001
	R8_TEM_SENSOR = sensor;
20000d86:	40001737          	lui	a4,0x40001
	adc_data = R16_ADC_DATA;
20000d8a:	05c78793          	addi	a5,a5,92 # 4000105c <_eusrstack+0x1ffe105c>
20000d8e:	0007d783          	lhu	a5,0(a5)
	R8_TEM_SENSOR = sensor;
20000d92:	05070da3          	sb	a6,91(a4) # 4000105b <_eusrstack+0x1ffe105b>
	R8_ADC_CHANNEL = channel;
20000d96:	40001737          	lui	a4,0x40001
20000d9a:	04a70c23          	sb	a0,88(a4) # 40001058 <_eusrstack+0x1ffe1058>
	R8_ADC_CFG = config;
20000d9e:	40001737          	lui	a4,0x40001
20000da2:	04b70ca3          	sb	a1,89(a4) # 40001059 <_eusrstack+0x1ffe1059>
	R8_TKEY_CFG = tkey_cfg;
20000da6:	40001737          	lui	a4,0x40001
20000daa:	04c70ba3          	sb	a2,87(a4) # 40001057 <_eusrstack+0x1ffe1057>
	return (((int)adc_data*1050+256)/512 - 3*1050);
20000dae:	41a00713          	li	a4,1050
20000db2:	02e787b3          	mul	a5,a5,a4
20000db6:	777d                	lui	a4,0xfffff
20000db8:	3b270713          	addi	a4,a4,946 # fffff3b2 <_eusrstack+0xdffdf3b2>
	{
		NFCA_PCD_SET_OUT_DRV(NFCA_FORCE_DRV);
	}
	else
	{
		if(vdd_value > 3400)      NFCA_PCD_SET_OUT_DRV(NFCA_PCD_DRV_CTRL_LEVEL0);
20000dbc:	6685                	lui	a3,0x1
20000dbe:	d4868693          	addi	a3,a3,-696 # d48 <_einit+0xca8>
	return (((int)adc_data*1050+256)/512 - 3*1050);
20000dc2:	10078793          	addi	a5,a5,256
20000dc6:	87a5                	srai	a5,a5,0x9
20000dc8:	97ba                	add	a5,a5,a4
		if(vdd_value > 3400)      NFCA_PCD_SET_OUT_DRV(NFCA_PCD_DRV_CTRL_LEVEL0);
20000dca:	4000e737          	lui	a4,0x4000e
20000dce:	0751                	addi	a4,a4,20 # 4000e014 <_eusrstack+0x1ffee014>
20000dd0:	1ef6de63          	bge	a3,a5,20000fcc <main_task_loop+0x2e2>
20000dd4:	431c                	lw	a5,0(a4)
20000dd6:	6685                	lui	a3,0x1
20000dd8:	9ff68693          	addi	a3,a3,-1537 # 9ff <_einit+0x95f>
20000ddc:	8ff5                	and	a5,a5,a3
		else if(vdd_value > 3000) NFCA_PCD_SET_OUT_DRV(NFCA_PCD_DRV_CTRL_LEVEL1);
		else if(vdd_value > 2600) NFCA_PCD_SET_OUT_DRV(NFCA_PCD_DRV_CTRL_LEVEL2);
		else                      NFCA_PCD_SET_OUT_DRV(NFCA_PCD_DRV_CTRL_LEVEL3);
20000dde:	c31c                	sw	a5,0(a4)
		// tell at a glance which firmware revision is running.
		if( now > next_led_time )
		{
			led_on ^= 1;
			funDigitalWrite( LED, led_on ? LED_ON : LED_OFF );
			next_led_time = now + Ticks_from_Ms(led_pattern_ms[led_step]);
20000de0:	678d                	lui	a5,0x3
20000de2:	82878793          	addi	a5,a5,-2008 # 2828 <led_pattern_ms.0>
20000de6:	c83e                	sw	a5,16(sp)
	return g_sine32[phase >> 27];
20000de8:	6789                	lui	a5,0x2
20000dea:	7f878793          	addi	a5,a5,2040 # 27f8 <g_sine32>
void main_task_loop() {
20000dee:	4481                	li	s1,0
20000df0:	4a01                	li	s4,0
20000df2:	4981                	li	s3,0
20000df4:	4b81                	li	s7,0
20000df6:	4d81                	li	s11,0
20000df8:	4b01                	li	s6,0
20000dfa:	4401                	li	s0,0
20000dfc:	4c81                	li	s9,0
20000dfe:	c602                	sw	zero,12(sp)
20000e00:	c402                	sw	zero,8(sp)

					if (res == PCD_NO_ERROR) {
						nfc_r = SK6812_BRIGHT; nfc_g = 0; nfc_b = SK6812_BRIGHT; // purple-ish
						nfc_color_until = now + Ticks_from_Ms(750);
						sk6812_set_rgb(nfc_r, nfc_g, nfc_b);
						if(g_nfca_pcd_recv_buf[0] == 0x88) {
20000e02:	25c18913          	addi	s2,gp,604 # 2000195c <g_nfca_pcd_recv_buf>
	return g_sine32[phase >> 27];
20000e06:	ca3e                	sw	a5,20(sp)
		uint32_t now = SysTick->CNTL;
20000e08:	e000f7b7          	lui	a5,0xe000f
20000e0c:	0087aa83          	lw	s5,8(a5) # e000f008 <_eusrstack+0xbffef008>
		process_usb_packet();
20000e10:	8d6e                	mv	s10,s11
20000e12:	3495                	jal	20000876 <process_usb_packet>
		if( now > next_led_time )
20000e14:	055cf263          	bgeu	s9,s5,20000e58 <main_task_loop+0x16e>
			led_on ^= 1;
20000e18:	001dcd13          	xori	s10,s11,1
			funDigitalWrite( LED, led_on ? LED_ON : LED_OFF );
20000e1c:	4785                	li	a5,1
			led_on ^= 1;
20000e1e:	0ffd7d13          	zext.b	s10,s10
			funDigitalWrite( LED, led_on ? LED_ON : LED_OFF );
20000e22:	1efd9263          	bne	s11,a5,20001006 <main_task_loop+0x31c>
20000e26:	400017b7          	lui	a5,0x40001
20000e2a:	0d878793          	addi	a5,a5,216 # 400010d8 <_eusrstack+0x1ffe10d8>
20000e2e:	4721                	li	a4,8
20000e30:	c398                	sw	a4,0(a5)
			next_led_time = now + Ticks_from_Ms(led_pattern_ms[led_step]);
20000e32:	4742                	lw	a4,16(sp)
20000e34:	001b9793          	slli	a5,s7,0x1
			led_step++;
20000e38:	0b85                	addi	s7,s7,1
			next_led_time = now + Ticks_from_Ms(led_pattern_ms[led_step]);
20000e3a:	97ba                	add	a5,a5,a4
20000e3c:	0007dc83          	lhu	s9,0(a5)
20000e40:	67bd                	lui	a5,0xf
20000e42:	3c078793          	addi	a5,a5,960 # f3c0 <ch585_grand_finale.c.9f3d4ca2+0xb92f>
20000e46:	02fc8cb3          	mul	s9,s9,a5
			led_step++;
20000e4a:	0ffbfb93          	zext.b	s7,s7
			if( led_step >= (sizeof(led_pattern_ms)/sizeof(led_pattern_ms[0])) ) led_step = 0;
20000e4e:	4795                	li	a5,5
			next_led_time = now + Ticks_from_Ms(led_pattern_ms[led_step]);
20000e50:	9cd6                	add	s9,s9,s5
			if( led_step >= (sizeof(led_pattern_ms)/sizeof(led_pattern_ms[0])) ) led_step = 0;
20000e52:	0177f363          	bgeu	a5,s7,20000e58 <main_task_loop+0x16e>
20000e56:	4b81                	li	s7,0
		if( now > next_rgb_time )
20000e58:	47b2                	lw	a5,12(sp)
20000e5a:	0557f063          	bgeu	a5,s5,20000e9a <main_task_loop+0x1b0>
			switch( rgb_phase++ & 3 )
20000e5e:	001b0d93          	addi	s11,s6,1
20000e62:	4785                	li	a5,1
20000e64:	003b7b13          	andi	s6,s6,3
20000e68:	0ffdfd93          	zext.b	s11,s11
20000e6c:	1afb0263          	beq	s6,a5,20001010 <main_task_loop+0x326>
20000e70:	4789                	li	a5,2
20000e72:	1afb0363          	beq	s6,a5,20001018 <main_task_loop+0x32e>
				default: sk6812_set_rgb(0, 0, 0); break; // off
20000e76:	4601                	li	a2,0
20000e78:	4581                	li	a1,0
				case 0: sk6812_set_rgb(SK6812_BRIGHT, 0, 0); break; // red
20000e7a:	02000513          	li	a0,32
			switch( rgb_phase++ & 3 )
20000e7e:	000b0363          	beqz	s6,20000e84 <main_task_loop+0x19a>
				default: sk6812_set_rgb(0, 0, 0); break; // off
20000e82:	4501                	li	a0,0
20000e84:	e0001097          	auipc	ra,0xe0001
20000e88:	a20080e7          	jalr	-1504(ra) # 18a4 <sk6812_set_rgb>
			next_rgb_time = now + Ticks_from_Ms(250);
20000e8c:	00ee17b7          	lui	a5,0xee1
20000e90:	98078793          	addi	a5,a5,-1664 # ee0980 <ch585_grand_finale.c.9f3d4ca2+0xedceef>
20000e94:	97d6                	add	a5,a5,s5
20000e96:	c63e                	sw	a5,12(sp)
			switch( rgb_phase++ & 3 )
20000e98:	8b6e                	mv	s6,s11
		if( now < nfc_color_until )
20000e9a:	008af963          	bgeu	s5,s0,20000eac <main_task_loop+0x1c2>
			sk6812_set_rgb(nfc_r, nfc_g, nfc_b);
20000e9e:	8626                	mv	a2,s1
20000ea0:	85d2                	mv	a1,s4
20000ea2:	854e                	mv	a0,s3
20000ea4:	e0001097          	auipc	ra,0xe0001
20000ea8:	a00080e7          	jalr	-1536(ra) # 18a4 <sk6812_set_rgb>
		if (now > next_heartbeat_time) {
20000eac:	47a2                	lw	a5,8(sp)
20000eae:	3357fc63          	bgeu	a5,s5,200011e6 <main_task_loop+0x4fc>
				send_heartbeat_if_free();
20000eb2:	3ac1                	jal	20000882 <send_heartbeat_if_free>
			next_heartbeat_time = now + Ticks_from_Ms(333);
20000eb4:	013d17b7          	lui	a5,0x13d1
20000eb8:	0c078793          	addi	a5,a5,192 # 13d10c0 <ch585_grand_finale.c.9f3d4ca2+0x13cd62f>
20000ebc:	97d6                	add	a5,a5,s5
20000ebe:	c43e                	sw	a5,8(sp)
			nfca_pcd_start();
20000ec0:	e0000097          	auipc	ra,0xe0000
20000ec4:	67c080e7          	jalr	1660(ra) # 153c <nfca_pcd_start>
			g_last_nfc_ant_adc = nfca_adc_get_ant_signal();
20000ec8:	e0000097          	auipc	ra,0xe0000
20000ecc:	69c080e7          	jalr	1692(ra) # 1564 <nfca_adc_get_ant_signal>
20000ed0:	c2a19123          	sh	a0,-990(gp) # 20001322 <g_last_nfc_ant_adc>
			g_last_lpcd_base = gs_lpcd_adc_base_value;
20000ed4:	c201d703          	lhu	a4,-992(gp) # 20001320 <gs_lpcd_adc_base_value>
				sk6812_set_rgb(nfc_r, nfc_g, nfc_b);
20000ed8:	02000613          	li	a2,32
			g_last_lpcd_base = gs_lpcd_adc_base_value;
20000edc:	c0e19f23          	sh	a4,-994(gp) # 2000131e <g_last_lpcd_base>
				sk6812_set_rgb(nfc_r, nfc_g, nfc_b);
20000ee0:	4581                	li	a1,0
20000ee2:	4501                	li	a0,0
				R8_NFC_CMD &= ~RB_NFC_ANTENNA_ON;
20000ee4:	4000e437          	lui	s0,0x4000e
			g_last_lpcd_hit = 0;
20000ee8:	c0018e23          	sb	zero,-996(gp) # 2000131c <g_last_lpcd_hit>
				sk6812_set_rgb(nfc_r, nfc_g, nfc_b);
20000eec:	e0001097          	auipc	ra,0xe0001
20000ef0:	9b8080e7          	jalr	-1608(ra) # 18a4 <sk6812_set_rgb>
				R8_NFC_CMD &= ~RB_NFC_ANTENNA_ON;
20000ef4:	00044783          	lbu	a5,0(s0) # 4000e000 <_eusrstack+0x1ffee000>
				Delay_Ms(5);
20000ef8:	0004c537          	lui	a0,0x4c
20000efc:	2c050513          	addi	a0,a0,704 # 4c2c0 <ch585_grand_finale.c.9f3d4ca2+0x4882f>
				R8_NFC_CMD &= ~RB_NFC_ANTENNA_ON;
20000f00:	0fb7f793          	andi	a5,a5,251
20000f04:	00f40023          	sb	a5,0(s0)
				Delay_Ms(5);
20000f08:	e0000097          	auipc	ra,0xe0000
20000f0c:	49c080e7          	jalr	1180(ra) # 13a4 <DelaySysTick>
				R8_NFC_CMD |= RB_NFC_ANTENNA_ON;
20000f10:	00044783          	lbu	a5,0(s0)
				Delay_Ms(5);
20000f14:	0004c537          	lui	a0,0x4c
20000f18:	2c050513          	addi	a0,a0,704 # 4c2c0 <ch585_grand_finale.c.9f3d4ca2+0x4882f>
				R8_NFC_CMD |= RB_NFC_ANTENNA_ON;
20000f1c:	0047e793          	ori	a5,a5,4
20000f20:	00f40023          	sb	a5,0(s0)
				Delay_Ms(5);
20000f24:	e0000097          	auipc	ra,0xe0000
20000f28:	480080e7          	jalr	1152(ra) # 13a4 <DelaySysTick>
				if(PcdReq(CMD_REQA, 0, 0) == PCD_NO_ERROR) {
20000f2c:	4601                	li	a2,0
20000f2e:	4581                	li	a1,0
20000f30:	02600513          	li	a0,38
20000f34:	d80ff0ef          	jal	200004b4 <PcdReq>
20000f38:	34051263          	bnez	a0,2000127c <main_task_loop+0x592>
					sk6812_set_rgb(nfc_r, nfc_g, nfc_b);
20000f3c:	4601                	li	a2,0
20000f3e:	02000593          	li	a1,32
20000f42:	e0001097          	auipc	ra,0xe0001
20000f46:	962080e7          	jalr	-1694(ra) # 18a4 <sk6812_set_rgb>
					res = PcdReq(CMD_ANTICOLL1, /*0x20*/0, 2);
20000f4a:	4609                	li	a2,2
20000f4c:	4581                	li	a1,0
20000f4e:	09300513          	li	a0,147
					atqa = ((uint16_t *)(g_nfca_pcd_recv_buf))[0];
20000f52:	25c1da03          	lhu	s4,604(gp) # 2000195c <g_nfca_pcd_recv_buf>
					res = PcdReq(CMD_ANTICOLL1, /*0x20*/0, 2);
20000f56:	d5eff0ef          	jal	200004b4 <PcdReq>
20000f5a:	89aa                	mv	s3,a0
					if (res == PCD_NO_ERROR) {
20000f5c:	38051a63          	bnez	a0,200012f0 <main_task_loop+0x606>
						nfc_color_until = now + Ticks_from_Ms(750);
20000f60:	02ca2437          	lui	s0,0x2ca2
20000f64:	c8040413          	addi	s0,s0,-896 # 2ca1c80 <ch585_grand_finale.c.9f3d4ca2+0x2c9e1ef>
						sk6812_set_rgb(nfc_r, nfc_g, nfc_b);
20000f68:	02000613          	li	a2,32
20000f6c:	4581                	li	a1,0
20000f6e:	02000513          	li	a0,32
20000f72:	e0001097          	auipc	ra,0xe0001
20000f76:	932080e7          	jalr	-1742(ra) # 18a4 <sk6812_set_rgb>
						nfc_color_until = now + Ticks_from_Ms(750);
20000f7a:	9456                	add	s0,s0,s5
						if(g_nfca_pcd_recv_buf[0] == 0x88) {
20000f7c:	00094a83          	lbu	s5,0(s2)
20000f80:	08800713          	li	a4,136
20000f84:	c4018493          	addi	s1,gp,-960 # 20001340 <gs_picc_uid>
20000f88:	28ea9263          	bne	s5,a4,2000120c <main_task_loop+0x522>
							gs_picc_uid[0] = g_nfca_pcd_recv_buf[1];
20000f8c:	00194783          	lbu	a5,1(s2)
							gs_picc_uid[1] = g_nfca_pcd_recv_buf[2];
							gs_picc_uid[2] = g_nfca_pcd_recv_buf[3];

							res = PcdReq(CMD_ANTICOLL1, g_nfca_pcd_recv_buf, 7);
20000f90:	461d                	li	a2,7
20000f92:	85ca                	mv	a1,s2
							gs_picc_uid[0] = g_nfca_pcd_recv_buf[1];
20000f94:	00f48023          	sb	a5,0(s1)
							gs_picc_uid[1] = g_nfca_pcd_recv_buf[2];
20000f98:	00294783          	lbu	a5,2(s2)
							res = PcdReq(CMD_ANTICOLL1, g_nfca_pcd_recv_buf, 7);
20000f9c:	09300513          	li	a0,147
							gs_picc_uid[1] = g_nfca_pcd_recv_buf[2];
20000fa0:	00f480a3          	sb	a5,1(s1)
							gs_picc_uid[2] = g_nfca_pcd_recv_buf[3];
20000fa4:	00394783          	lbu	a5,3(s2)
20000fa8:	00f48123          	sb	a5,2(s1)
							res = PcdReq(CMD_ANTICOLL1, g_nfca_pcd_recv_buf, 7);
20000fac:	d08ff0ef          	jal	200004b4 <PcdReq>
							if (res == PCD_NO_ERROR) {
20000fb0:	e909                	bnez	a0,20000fc2 <main_task_loop+0x2d8>
								res = PcdReq(CMD_ANTICOLL2, /*0x20*/0, 2);
20000fb2:	4609                	li	a2,2
20000fb4:	4581                	li	a1,0
20000fb6:	09500513          	li	a0,149
20000fba:	cfaff0ef          	jal	200004b4 <PcdReq>
20000fbe:	8daa                	mv	s11,a0
								if (res == PCD_NO_ERROR) {
20000fc0:	c125                	beqz	a0,20001020 <main_task_loop+0x336>
						nfc_r = SK6812_BRIGHT; nfc_g = 0; nfc_b = SK6812_BRIGHT; // purple-ish
20000fc2:	4a01                	li	s4,0
20000fc4:	02000993          	li	s3,32
						case 4: nfc_r = 0; nfc_g = SK6812_BRIGHT; nfc_b = SK6812_BRIGHT; break;   // cyan
						case 6: nfc_r = SK6812_BRIGHT; nfc_g = SK6812_BRIGHT; nfc_b = SK6812_BRIGHT; break; // white
						default:
							// If we never left "sending/receiving", g_last_nfc_comm_status will be 1/2.
							if( g_last_nfc_comm_status == 1 || g_last_nfc_comm_status == 2 )
								{ nfc_r = SK6812_BRIGHT; nfc_g = 0; nfc_b = SK6812_BRIGHT; } // magenta
20000fc8:	84ce                	mv	s1,s3
20000fca:	a409                	j	200011cc <main_task_loop+0x4e2>
		else if(vdd_value > 3000) NFCA_PCD_SET_OUT_DRV(NFCA_PCD_DRV_CTRL_LEVEL1);
20000fcc:	6685                	lui	a3,0x1
20000fce:	bb868693          	addi	a3,a3,-1096 # bb8 <_einit+0xb18>
20000fd2:	00f6da63          	bge	a3,a5,20000fe6 <main_task_loop+0x2fc>
20000fd6:	431c                	lw	a5,0(a4)
20000fd8:	6685                	lui	a3,0x1
20000fda:	9ff68693          	addi	a3,a3,-1537 # 9ff <_einit+0x95f>
20000fde:	8ff5                	and	a5,a5,a3
20000fe0:	6689                	lui	a3,0x2
		else                      NFCA_PCD_SET_OUT_DRV(NFCA_PCD_DRV_CTRL_LEVEL3);
20000fe2:	8fd5                	or	a5,a5,a3
20000fe4:	bbed                	j	20000dde <main_task_loop+0xf4>
		else if(vdd_value > 2600) NFCA_PCD_SET_OUT_DRV(NFCA_PCD_DRV_CTRL_LEVEL2);
20000fe6:	6605                	lui	a2,0x1
20000fe8:	6685                	lui	a3,0x1
20000fea:	a2860613          	addi	a2,a2,-1496 # a28 <_einit+0x988>
20000fee:	9ff68693          	addi	a3,a3,-1537 # 9ff <_einit+0x95f>
20000ff2:	00f65663          	bge	a2,a5,20000ffe <main_task_loop+0x314>
20000ff6:	431c                	lw	a5,0(a4)
20000ff8:	8ff5                	and	a5,a5,a3
20000ffa:	6691                	lui	a3,0x4
20000ffc:	b7dd                	j	20000fe2 <main_task_loop+0x2f8>
		else                      NFCA_PCD_SET_OUT_DRV(NFCA_PCD_DRV_CTRL_LEVEL3);
20000ffe:	431c                	lw	a5,0(a4)
20001000:	8ff5                	and	a5,a5,a3
20001002:	6699                	lui	a3,0x6
20001004:	bff9                	j	20000fe2 <main_task_loop+0x2f8>
			funDigitalWrite( LED, led_on ? LED_ON : LED_OFF );
20001006:	400017b7          	lui	a5,0x40001
2000100a:	0cc78793          	addi	a5,a5,204 # 400010cc <_eusrstack+0x1ffe10cc>
2000100e:	b505                	j	20000e2e <main_task_loop+0x144>
				case 1: sk6812_set_rgb(0, SK6812_BRIGHT, 0); break; // green
20001010:	4601                	li	a2,0
20001012:	02000593          	li	a1,32
20001016:	b5b5                	j	20000e82 <main_task_loop+0x198>
				case 2: sk6812_set_rgb(0, 0, SK6812_BRIGHT); break; // blue
20001018:	02000613          	li	a2,32
2000101c:	4581                	li	a1,0
2000101e:	b595                	j	20000e82 <main_task_loop+0x198>
									if(g_nfca_pcd_recv_buf[0] == 0x88) {
20001020:	00094603          	lbu	a2,0(s2)
										gs_picc_uid[3] = g_nfca_pcd_recv_buf[1];
20001024:	00194683          	lbu	a3,1(s2)
										gs_picc_uid[4] = g_nfca_pcd_recv_buf[2];
20001028:	00294703          	lbu	a4,2(s2)
										gs_picc_uid[5] = g_nfca_pcd_recv_buf[3];
2000102c:	00394783          	lbu	a5,3(s2)
									if(g_nfca_pcd_recv_buf[0] == 0x88) {
20001030:	1b561d63          	bne	a2,s5,200011ea <main_task_loop+0x500>
										res = PcdReq(CMD_ANTICOLL2, g_nfca_pcd_recv_buf, 7);
20001034:	461d                	li	a2,7
20001036:	25c18593          	addi	a1,gp,604 # 2000195c <g_nfca_pcd_recv_buf>
2000103a:	09500513          	li	a0,149
										gs_picc_uid[3] = g_nfca_pcd_recv_buf[1];
2000103e:	00d481a3          	sb	a3,3(s1)
										gs_picc_uid[4] = g_nfca_pcd_recv_buf[2];
20001042:	00e48223          	sb	a4,4(s1)
										gs_picc_uid[5] = g_nfca_pcd_recv_buf[3];
20001046:	00f482a3          	sb	a5,5(s1)
										res = PcdReq(CMD_ANTICOLL2, g_nfca_pcd_recv_buf, 7);
2000104a:	c6aff0ef          	jal	200004b4 <PcdReq>
										if (res == PCD_NO_ERROR) {
2000104e:	f935                	bnez	a0,20000fc2 <main_task_loop+0x2d8>
											res = PcdReq(CMD_ANTICOLL3, /*0x20*/0, 2);
20001050:	4609                	li	a2,2
20001052:	4581                	li	a1,0
20001054:	09700513          	li	a0,151
20001058:	c5cff0ef          	jal	200004b4 <PcdReq>
2000105c:	8daa                	mv	s11,a0
											if (res == PCD_NO_ERROR) {
2000105e:	f135                	bnez	a0,20000fc2 <main_task_loop+0x2d8>
												gs_picc_uid[6] = g_nfca_pcd_recv_buf[0];
20001060:	25c1d783          	lhu	a5,604(gp) # 2000195c <g_nfca_pcd_recv_buf>
													res = PcdReq(CMD_ANTICOLL3, g_nfca_pcd_recv_buf, 7);
20001064:	461d                	li	a2,7
20001066:	25c18593          	addi	a1,gp,604 # 2000195c <g_nfca_pcd_recv_buf>
												gs_picc_uid[6] = g_nfca_pcd_recv_buf[0];
2000106a:	00f49323          	sh	a5,6(s1)
												gs_picc_uid[8] = g_nfca_pcd_recv_buf[2];
2000106e:	00295783          	lhu	a5,2(s2)
													res = PcdReq(CMD_ANTICOLL3, g_nfca_pcd_recv_buf, 7);
20001072:	09700513          	li	a0,151
												uuid_len = 10;
20001076:	4aa9                	li	s5,10
												gs_picc_uid[8] = g_nfca_pcd_recv_buf[2];
20001078:	00f49423          	sh	a5,8(s1)
													res = PcdReq(CMD_ANTICOLL3, g_nfca_pcd_recv_buf, 7);
2000107c:	c38ff0ef          	jal	200004b4 <PcdReq>
										if (res == PCD_NO_ERROR) {
20001080:	e119                	bnez	a0,20001086 <main_task_loop+0x39c>
											sak = g_nfca_pcd_recv_buf[0];
20001082:	00094d83          	lbu	s11,0(s2)
						card_interaction(uuid_len, sak);
20001086:	85ee                	mv	a1,s11
20001088:	8556                	mv	a0,s5
2000108a:	3ebd                	jal	20000c08 <card_interaction>
						PcdReq(CMD_HALT, 0, 0);
2000108c:	4601                	li	a2,0
2000108e:	4581                	li	a1,0
20001090:	05000513          	li	a0,80
20001094:	c20ff0ef          	jal	200004b4 <PcdReq>
	R8_NFC_STATUS = 0;
20001098:	4000e7b7          	lui	a5,0x4000e
2000109c:	000780a3          	sb	zero,1(a5) # 4000e001 <_eusrstack+0x1ffee001>
	R8_NFC_CMD = 0;
200010a0:	4000e7b7          	lui	a5,0x4000e
200010a4:	00078023          	sb	zero,0(a5) # 4000e000 <_eusrstack+0x1ffee000>
}

// Disable Interrupt (by interrupt number)
RV_STATIC_INLINE void NVIC_DisableIRQ(IRQn_Type IRQn)
{
	NVIC->IRER[((uint32_t)(IRQn) >> 5)] = (1 << ((uint32_t)(IRQn) & 0x1F));
200010a8:	4741                	li	a4,16
200010aa:	e000e7b7          	lui	a5,0xe000e
	uint8_t b = (sak & 0x1Fu) + 4u;
200010ae:	01fdfd93          	andi	s11,s11,31
200010b2:	18e7a223          	sw	a4,388(a5) # e000e184 <_eusrstack+0xbffee184>
200010b6:	0d91                	addi	s11,s11,4
	if (b > SK6812_BRIGHT) b = SK6812_BRIGHT;
200010b8:	02000793          	li	a5,32
200010bc:	0ffdf613          	zext.b	a2,s11
200010c0:	01b7f463          	bgeu	a5,s11,200010c8 <main_task_loop+0x3de>
200010c4:	02000613          	li	a2,32
	uint8_t g = ((uint8_t)(atqa) & 0x1Fu) + 4u;
200010c8:	01fa7a13          	andi	s4,s4,31
200010cc:	0a11                	addi	s4,s4,4
	if (g > SK6812_BRIGHT) g = SK6812_BRIGHT;
200010ce:	02000793          	li	a5,32
200010d2:	0ffa7593          	zext.b	a1,s4
200010d6:	0147f463          	bgeu	a5,s4,200010de <main_task_loop+0x3f4>
200010da:	02000593          	li	a1,32
	uint8_t r = (uid_len ? ((gs_picc_uid[0] * 5u) & 0x1Fu) : 8u) + 4u;
200010de:	0004c783          	lbu	a5,0(s1)
200010e2:	4715                	li	a4,5
200010e4:	02e787b3          	mul	a5,a5,a4
	if (r > SK6812_BRIGHT) r = SK6812_BRIGHT;
200010e8:	02000713          	li	a4,32
	uint8_t r = (uid_len ? ((gs_picc_uid[0] * 5u) & 0x1Fu) : 8u) + 4u;
200010ec:	8bfd                	andi	a5,a5,31
200010ee:	0791                	addi	a5,a5,4
	if (r > SK6812_BRIGHT) r = SK6812_BRIGHT;
200010f0:	853e                	mv	a0,a5
200010f2:	00f77463          	bgeu	a4,a5,200010fa <main_task_loop+0x410>
200010f6:	02000513          	li	a0,32
	sk6812_set_rgb(r, g, b);
200010fa:	03f57513          	andi	a0,a0,63
200010fe:	e0000097          	auipc	ra,0xe0000
20001102:	7a6080e7          	jalr	1958(ra) # 18a4 <sk6812_set_rgb>
	uint16_t semitone_offset = uid_len ? (uid[uid_len - 1] & 0x03u) : 0u;
20001106:	c3f18793          	addi	a5,gp,-961 # 2000133f <g_last_nfc_intf_status+0x3>
2000110a:	9abe                	add	s5,s5,a5
	return SysTick->CNTL;
2000110c:	e000f7b7          	lui	a5,0xe000f
20001110:	000ac483          	lbu	s1,0(s5)
20001114:	0087aa83          	lw	s5,8(a5) # e000f008 <_eusrstack+0xbffef008>
	if (g_audio_pwm_initialized) return;
20001118:	c101c783          	lbu	a5,-1008(gp) # 20001310 <g_audio_pwm_initialized>
2000111c:	888d                	andi	s1,s1,3
2000111e:	e789                	bnez	a5,20001128 <main_task_loop+0x43e>
20001120:	e0000097          	auipc	ra,0xe0000
20001124:	78c080e7          	jalr	1932(ra) # 18ac <audio_init.part.0>
20001128:	6a0d                	lui	s4,0x3
2000112a:	818a0a13          	addi	s4,s4,-2024 # 2818 <g_tag_cue>
			next_tick += AUDIO_SAMPLE_TICKS;
2000112e:	6785                	lui	a5,0x1
			R8_PWM6_DATA = (uint8_t)sample;
20001130:	40005db7          	lui	s11,0x40005
20001134:	010a0e93          	addi	t4,s4,16
			switch( rgb_phase++ & 3 )
20001138:	4701                	li	a4,0
	return SysTick->CNTL;
2000113a:	e000fe37          	lui	t3,0xe000f
			next_tick += AUDIO_SAMPLE_TICKS;
2000113e:	45078793          	addi	a5,a5,1104 # 1450 <USBFSReset+0x14>
			sample = (sine32_wave(phase) * 104) / 128;
20001142:	06800313          	li	t1,104
20001146:	08000893          	li	a7,128
			if (sample > 255) sample = 255;
2000114a:	0ff00813          	li	a6,255
			R8_PWM6_DATA = (uint8_t)sample;
2000114e:	0d99                	addi	s11,s11,6 # 40005006 <_eusrstack+0x1ffe5006>
		uint16_t shifted_hz = g_tag_cue[note_idx].hz;
20001150:	002a5583          	lhu	a1,2(s4)
		if (semitone_offset)
20001154:	c889                	beqz	s1,20001166 <main_task_loop+0x47c>
			shifted_hz = (uint16_t)(shifted_hz + (shifted_hz / 16u) * semitone_offset);
20001156:	0045d693          	srli	a3,a1,0x4
2000115a:	02d486b3          	mul	a3,s1,a3
2000115e:	96ae                	add	a3,a3,a1
20001160:	01069593          	slli	a1,a3,0x10
20001164:	81c1                	srli	a1,a1,0x10
	if (!hz) return 0;
20001166:	4501                	li	a0,0
20001168:	c985                	beqz	a1,20001198 <main_task_loop+0x4ae>
	return (uint32_t)((((uint64_t)hz) << 32) / AUDIO_SAMPLE_RATE);
2000116a:	660d                	lui	a2,0x3
2000116c:	4681                	li	a3,0
2000116e:	ee060613          	addi	a2,a2,-288 # 2ee0 <ch32fun.c.ebc72378+0x1c5>
20001172:	ce3e                	sw	a5,28(sp)
20001174:	cc3a                	sw	a4,24(sp)
20001176:	e0001097          	auipc	ra,0xe0001
2000117a:	284080e7          	jalr	644(ra) # 23fa <__udivdi3>
2000117e:	47f2                	lw	a5,28(sp)
20001180:	4762                	lw	a4,24(sp)
20001182:	668d                	lui	a3,0x3
20001184:	0ff00813          	li	a6,255
20001188:	08000893          	li	a7,128
2000118c:	06800313          	li	t1,104
20001190:	e000fe37          	lui	t3,0xe000f
20001194:	82868e93          	addi	t4,a3,-2008 # 2828 <led_pattern_ms.0>
		for (uint16_t i = 0; i < g_tag_cue[note_idx].duration_samples; i++)
20001198:	4601                	li	a2,0
2000119a:	000a5683          	lhu	a3,0(s4)
2000119e:	08d66763          	bltu	a2,a3,2000122c <main_task_loop+0x542>
	for (unsigned note_idx = 0; note_idx < AUDIO_TAG_CUE_NOTES; note_idx++)
200011a2:	0a11                	addi	s4,s4,4
200011a4:	fbda16e3          	bne	s4,t4,20001150 <main_task_loop+0x466>
	R8_PWM6_DATA = AUDIO_PWM_MIDPOINT;
200011a8:	400057b7          	lui	a5,0x40005
200011ac:	f8000713          	li	a4,-128
200011b0:	00e78323          	sb	a4,6(a5) # 40005006 <_eusrstack+0x1ffe5006>
	sk6812_set_rgb(0, 0, 0);
200011b4:	4601                	li	a2,0
200011b6:	4581                	li	a1,0
200011b8:	4501                	li	a0,0
200011ba:	e0000097          	auipc	ra,0xe0000
200011be:	6ea080e7          	jalr	1770(ra) # 18a4 <sk6812_set_rgb>
}
200011c2:	4a01                	li	s4,0
200011c4:	02000493          	li	s1,32
200011c8:	02000993          	li	s3,32
	R8_NFC_STATUS = 0;
200011cc:	4000e7b7          	lui	a5,0x4000e
200011d0:	000780a3          	sb	zero,1(a5) # 4000e001 <_eusrstack+0x1ffee001>
	R8_NFC_CMD = 0;
200011d4:	4000e7b7          	lui	a5,0x4000e
200011d8:	00078023          	sb	zero,0(a5) # 4000e000 <_eusrstack+0x1ffee000>
200011dc:	4741                	li	a4,16
200011de:	e000e7b7          	lui	a5,0xe000e
200011e2:	18e7a223          	sw	a4,388(a5) # e000e184 <_eusrstack+0xbffee184>
void main_task_loop() {
200011e6:	8dea                	mv	s11,s10
200011e8:	b105                	j	20000e08 <main_task_loop+0x11e>
										gs_picc_uid[3] = g_nfca_pcd_recv_buf[0];
200011ea:	00c481a3          	sb	a2,3(s1)
										res = PcdReq(CMD_ANTICOLL2, g_nfca_pcd_recv_buf, 7);
200011ee:	25c18593          	addi	a1,gp,604 # 2000195c <g_nfca_pcd_recv_buf>
200011f2:	461d                	li	a2,7
200011f4:	09500513          	li	a0,149
										gs_picc_uid[4] = g_nfca_pcd_recv_buf[1];
200011f8:	00d48223          	sb	a3,4(s1)
										gs_picc_uid[5] = g_nfca_pcd_recv_buf[2];
200011fc:	00e482a3          	sb	a4,5(s1)
										gs_picc_uid[6] = g_nfca_pcd_recv_buf[3];
20001200:	00f48323          	sb	a5,6(s1)
										uuid_len = 7;
20001204:	4a9d                	li	s5,7
										res = PcdReq(CMD_ANTICOLL2, g_nfca_pcd_recv_buf, 7);
20001206:	aaeff0ef          	jal	200004b4 <PcdReq>
										if (res == PCD_NO_ERROR) {
2000120a:	bd9d                	j	20001080 <main_task_loop+0x396>
							gs_picc_uid[0] = g_nfca_pcd_recv_buf[0];
2000120c:	25c1a703          	lw	a4,604(gp) # 2000195c <g_nfca_pcd_recv_buf>
							res = PcdReq(CMD_ANTICOLL1, g_nfca_pcd_recv_buf, 7);
20001210:	461d                	li	a2,7
20001212:	85ca                	mv	a1,s2
20001214:	09300513          	li	a0,147
							gs_picc_uid[0] = g_nfca_pcd_recv_buf[0];
20001218:	c4e1a023          	sw	a4,-960(gp) # 20001340 <gs_picc_uid>
							res = PcdReq(CMD_ANTICOLL1, g_nfca_pcd_recv_buf, 7);
2000121c:	a98ff0ef          	jal	200004b4 <PcdReq>
							if (res == PCD_NO_ERROR) {
20001220:	4d81                	li	s11,0
20001222:	e119                	bnez	a0,20001228 <main_task_loop+0x53e>
								sak = g_nfca_pcd_recv_buf[0];
20001224:	00094d83          	lbu	s11,0(s2)
							uuid_len = 4;
20001228:	4a91                	li	s5,4
2000122a:	bdb1                	j	20001086 <main_task_loop+0x39c>
	return SysTick->CNTL;
2000122c:	008e2683          	lw	a3,8(t3) # e000f008 <_eusrstack+0xbffef008>
			while ((int32_t)(now_ticks() - next_tick) < 0) { }
20001230:	415686b3          	sub	a3,a3,s5
20001234:	fe06cce3          	bltz	a3,2000122c <main_task_loop+0x542>
	return g_sine32[phase >> 27];
20001238:	45d2                	lw	a1,20(sp)
			phase += phase_step;
2000123a:	972a                	add	a4,a4,a0
	return g_sine32[phase >> 27];
2000123c:	01b75693          	srli	a3,a4,0x1b
20001240:	96ae                	add	a3,a3,a1
			sample = (sine32_wave(phase) * 104) / 128;
20001242:	00068683          	lb	a3,0(a3)
			next_tick += AUDIO_SAMPLE_TICKS;
20001246:	9abe                	add	s5,s5,a5
			sample = (sine32_wave(phase) * 104) / 128;
20001248:	026686b3          	mul	a3,a3,t1
2000124c:	0316c6b3          	div	a3,a3,a7
			filter_state += ((sample - filter_state) >> 2);
20001250:	413686b3          	sub	a3,a3,s3
20001254:	8689                	srai	a3,a3,0x2
20001256:	99b6                	add	s3,s3,a3
			sample = filter_state + AUDIO_PWM_MIDPOINT;
20001258:	08098693          	addi	a3,s3,128
			if (sample > 255) sample = 255;
2000125c:	00d85c63          	bge	a6,a3,20001274 <main_task_loop+0x58a>
20001260:	0ff00693          	li	a3,255
		for (uint16_t i = 0; i < g_tag_cue[note_idx].duration_samples; i++)
20001264:	0605                	addi	a2,a2,1
			R8_PWM6_DATA = (uint8_t)sample;
20001266:	0ff6f693          	zext.b	a3,a3
		for (uint16_t i = 0; i < g_tag_cue[note_idx].duration_samples; i++)
2000126a:	0642                	slli	a2,a2,0x10
			R8_PWM6_DATA = (uint8_t)sample;
2000126c:	00dd8023          	sb	a3,0(s11)
		for (uint16_t i = 0; i < g_tag_cue[note_idx].duration_samples; i++)
20001270:	8241                	srli	a2,a2,0x10
20001272:	b725                	j	2000119a <main_task_loop+0x4b0>
			R8_PWM6_DATA = (uint8_t)sample;
20001274:	fe06d8e3          	bgez	a3,20001264 <main_task_loop+0x57a>
20001278:	4681                	li	a3,0
2000127a:	b7ed                	j	20001264 <main_task_loop+0x57a>
					switch( g_last_nfc_comm_status )
2000127c:	c251c683          	lbu	a3,-987(gp) # 20001325 <g_last_nfc_comm_status>
20001280:	4611                	li	a2,4
20001282:	0ff6f713          	zext.b	a4,a3
20001286:	02c68763          	beq	a3,a2,200012b4 <main_task_loop+0x5ca>
2000128a:	4699                	li	a3,6
2000128c:	04d70663          	beq	a4,a3,200012d8 <main_task_loop+0x5ee>
20001290:	468d                	li	a3,3
20001292:	04d70863          	beq	a4,a3,200012e2 <main_task_loop+0x5f8>
							if( g_last_nfc_comm_status == 1 || g_last_nfc_comm_status == 2 )
20001296:	c251c683          	lbu	a3,-987(gp) # 20001325 <g_last_nfc_comm_status>
2000129a:	4705                	li	a4,1
2000129c:	04e68663          	beq	a3,a4,200012e8 <main_task_loop+0x5fe>
200012a0:	c251c483          	lbu	s1,-987(gp) # 20001325 <g_last_nfc_comm_status>
							else
								{ nfc_r = SK6812_BRIGHT; nfc_g = 0; nfc_b = 0; } // red
200012a4:	4a01                	li	s4,0
							if( g_last_nfc_comm_status == 1 || g_last_nfc_comm_status == 2 )
200012a6:	14f9                	addi	s1,s1,-2
200012a8:	0014b493          	seqz	s1,s1
200012ac:	0496                	slli	s1,s1,0x5
								{ nfc_r = SK6812_BRIGHT; nfc_g = 0; nfc_b = SK6812_BRIGHT; } // magenta
200012ae:	02000993          	li	s3,32
200012b2:	a031                	j	200012be <main_task_loop+0x5d4>
					switch( g_last_nfc_comm_status )
200012b4:	4981                	li	s3,0
200012b6:	02000493          	li	s1,32
200012ba:	02000a13          	li	s4,32
							break;
					}
					nfc_color_until = now + Ticks_from_Ms(80);
200012be:	004c3437          	lui	s0,0x4c3
200012c2:	c0040413          	addi	s0,s0,-1024 # 4c2c00 <ch585_grand_finale.c.9f3d4ca2+0x4bf16f>
					sk6812_set_rgb(nfc_r, nfc_g, nfc_b);
200012c6:	8626                	mv	a2,s1
200012c8:	85d2                	mv	a1,s4
200012ca:	854e                	mv	a0,s3
					nfc_color_until = now + Ticks_from_Ms(80);
200012cc:	9456                	add	s0,s0,s5
					sk6812_set_rgb(nfc_r, nfc_g, nfc_b);
200012ce:	e0000097          	auipc	ra,0xe0000
200012d2:	5d6080e7          	jalr	1494(ra) # 18a4 <sk6812_set_rgb>
200012d6:	bddd                	j	200011cc <main_task_loop+0x4e2>
						case 6: nfc_r = SK6812_BRIGHT; nfc_g = SK6812_BRIGHT; nfc_b = SK6812_BRIGHT; break; // white
200012d8:	02000493          	li	s1,32
200012dc:	02000a13          	li	s4,32
200012e0:	b7f9                	j	200012ae <main_task_loop+0x5c4>
						case 3: nfc_r = SK6812_BRIGHT; nfc_g = SK6812_BRIGHT/3; nfc_b = 0; break; // orange
200012e2:	4481                	li	s1,0
200012e4:	4a29                	li	s4,10
200012e6:	b7e1                	j	200012ae <main_task_loop+0x5c4>
								{ nfc_r = SK6812_BRIGHT; nfc_g = 0; nfc_b = SK6812_BRIGHT; } // magenta
200012e8:	4a01                	li	s4,0
200012ea:	02000493          	li	s1,32
200012ee:	b7c1                	j	200012ae <main_task_loop+0x5c4>
					nfc_color_until = now + Ticks_from_Ms(500);
200012f0:	01dc1437          	lui	s0,0x1dc1
200012f4:	30040413          	addi	s0,s0,768 # 1dc1300 <ch585_grand_finale.c.9f3d4ca2+0x1dbd86f>
200012f8:	9456                	add	s0,s0,s5
					nfc_r = 0; nfc_g = SK6812_BRIGHT; nfc_b = 0; // green
200012fa:	4981                	li	s3,0
200012fc:	02000a13          	li	s4,32
20001300:	b1e1                	j	20000fc8 <main_task_loop+0x2de>
	...

Disassembly of section .text:

000013a4 <DelaySysTick>:
    13a4:	e000f7b7          	lui	a5,0xe000f
    13a8:	479c                	lw	a5,8(a5)
    13aa:	e000f737          	lui	a4,0xe000f
    13ae:	953e                	add	a0,a0,a5
    13b0:	471c                	lw	a5,8(a4)
    13b2:	8f89                	sub	a5,a5,a0
    13b4:	fe07cee3          	bltz	a5,13b0 <DelaySysTick+0xc>
    13b8:	8082                	ret

000013ba <USBFS_InternalFinishSetup>:

void USBFS_InternalFinishSetup()
{

#if FUSB_EP1_MODE
	USBFSCTX.endpoint_mode[1] = FUSB_EP1_MODE;
    13ba:	200027b7          	lui	a5,0x20002
    13be:	e5c78793          	addi	a5,a5,-420 # 20001e5c <USBFSCTX>
    13c2:	4705                	li	a4,1
    13c4:	0ce7aa23          	sw	a4,212(a5)
#if FUSB_EP1_MODE > 0 
	USBFS->UEP4_1_MOD |= USBFS_UEP1_TX_EN;
    13c8:	40008737          	lui	a4,0x40008
    13cc:	00c74683          	lbu	a3,12(a4) # 4000800c <_eusrstack+0x1ffe800c>
    13d0:	0406e693          	ori	a3,a3,64
    13d4:	00d70623          	sb	a3,12(a4)
	USBFS->UEP4_1_MOD |= USBFS_UEP4_RX_EN;
#endif
#endif

#if FUSB_EP2_MODE
	USBFSCTX.endpoint_mode[2] = FUSB_EP2_MODE;
    13d8:	56fd                	li	a3,-1
    13da:	0cd7ac23          	sw	a3,216(a5)
#if FUSB_EP2_MODE > 0 
	USBFS->UEP2_3_MOD |= USBFS_UEP2_TX_EN;
#else
	USBFS->UEP2_3_MOD |= USBFS_UEP2_RX_EN;
    13de:	00d74683          	lbu	a3,13(a4)
    13e2:	0086e693          	ori	a3,a3,8
    13e6:	00d706a3          	sb	a3,13(a4)
#endif

	for( int i = 0; i < FUSB_CONFIG_EPS; i++ )
	{
#if defined(CH5xx) || defined(CH32X03x)
		if (i != 4) UEP_DMA(i) = (uintptr_t)USBFSCTX.ENDPOINTS[i];
    13ea:	200026b7          	lui	a3,0x20002
    13ee:	e6c68693          	addi	a3,a3,-404 # 20001e6c <USBFSCTX+0x10>
    13f2:	00d71823          	sh	a3,16(a4)
    13f6:	200026b7          	lui	a3,0x20002
    13fa:	40008737          	lui	a4,0x40008
    13fe:	eac68693          	addi	a3,a3,-340 # 20001eac <USBFSCTX+0x50>
    1402:	00d71a23          	sh	a3,20(a4) # 40008014 <_eusrstack+0x1ffe8014>
    1406:	200026b7          	lui	a3,0x20002
    140a:	40008737          	lui	a4,0x40008
    140e:	eec68693          	addi	a3,a3,-276 # 20001eec <USBFSCTX+0x90>
    1412:	00d71c23          	sh	a3,24(a4) # 40008018 <_eusrstack+0x1ffe8018>
		UEP_DMA(i) = (uintptr_t)USBFSCTX.ENDPOINTS[i];
#endif
	}
	
#if defined (CH5xx) || defined (CH32X03x) || defined (CH32V10x)
	UEP_CTRL_TX(0) = USBFS_UEP_T_RES_NAK | USBFS_UEP_R_RES_ACK | CHECK_USBFS_UEP_T_AUTO_TOG;
    1416:	40008737          	lui	a4,0x40008
    141a:	46c9                	li	a3,18
    141c:	02d70123          	sb	a3,34(a4) # 40008022 <_eusrstack+0x1ffe8022>

	for( int i = 1; i < FUSB_CONFIG_EPS; i++ )
	{
		if( USBFSCTX.endpoint_mode[i] > 0 )
		{
			UEP_CTRL_TX(i) = USBFS_UEP_T_RES_NAK;
    1420:	40008737          	lui	a4,0x40008
    1424:	4689                	li	a3,2
    1426:	02d70323          	sb	a3,38(a4) # 40008026 <_eusrstack+0x1ffe8026>
			UEP_CTRL_TX(i) = USBFS_UEP_R_RES_ACK;
#else
			UEP_CTRL_RX(i) = USBFS_UEP_R_RES_ACK;
#endif
		}
		USBFSCTX.USBFS_Endp_Busy[i] = 0;
    142a:	0e0780a3          	sb	zero,225(a5)
			UEP_CTRL_TX(i) = USBFS_UEP_R_RES_ACK;
    142e:	40008737          	lui	a4,0x40008
    1432:	02070523          	sb	zero,42(a4) # 4000802a <_eusrstack+0x1ffe802a>
		USBFSCTX.USBFS_Endp_Busy[i] = 0;
    1436:	0e078123          	sb	zero,226(a5)
	}
}
    143a:	8082                	ret

0000143c <USBFSReset>:
    143c:	e000e7b7          	lui	a5,0xe000e
    1440:	00400737          	lui	a4,0x400
    1444:	18e7a023          	sw	a4,384(a5) # e000e180 <_eusrstack+0xbffee180>
{
	NVIC_DisableIRQ( USB_IRQn );
#if defined (CH570_CH572)
	R16_PIN_ALTERNATE &= ~(RB_PIN_USB_EN | RB_UDP_PU_EN);
#elif defined (CH584_CH585)
	R16_PIN_CONFIG &= ~(RB_PIN_USB_EN | RB_UDP_PU_EN);
    1448:	400017b7          	lui	a5,0x40001
    144c:	01a7d703          	lhu	a4,26(a5) # 4000101a <_eusrstack+0x1ffe101a>
    1450:	66c1                	lui	a3,0x10
    1452:	f3f68693          	addi	a3,a3,-193 # ff3f <ch585_grand_finale.c.9f3d4ca2+0xc4ae>
    1456:	8f75                	and	a4,a4,a3
    1458:	00e79d23          	sh	a4,26(a5)
#else
	R16_PIN_ANALOG_IE &= ~(RB_PIN_USB_IE | RB_PIN_USB_DP_PU);
#endif
	USBFS->BASE_CTRL = USBFS_UC_RESET_SIE | USBFS_UC_CLR_ALL;
    145c:	400087b7          	lui	a5,0x40008
    1460:	4719                	li	a4,6
    1462:	00e78023          	sb	a4,0(a5) # 40008000 <_eusrstack+0x1ffe8000>
	USBFS->BASE_CTRL = 0x00;
    1466:	00078023          	sb	zero,0(a5)
	Delay_Us(10);
    146a:	26c00513          	li	a0,620
    146e:	bf1d                	j	13a4 <DelaySysTick>

00001470 <sk6812_send_bit_0>:
	GPIO_SetBits(STATUS_SK6812_PIN);
    1470:	400017b7          	lui	a5,0x40001
    1474:	0d878793          	addi	a5,a5,216 # 400010d8 <_eusrstack+0x1ffe10d8>
    1478:	04000713          	li	a4,64
    147c:	c398                	sw	a4,0(a5)
	SK6812_ADD_N_NOPS(SK6812_T0H_NOPS);
    147e:	0001                	nop
    1480:	0001                	nop
    1482:	0001                	nop
    1484:	0001                	nop
    1486:	0001                	nop
    1488:	0001                	nop
	GPIO_ResetBits(STATUS_SK6812_PIN);
    148a:	400017b7          	lui	a5,0x40001
    148e:	0cc78793          	addi	a5,a5,204 # 400010cc <_eusrstack+0x1ffe10cc>
    1492:	c398                	sw	a4,0(a5)
	SK6812_ADD_N_NOPS(SK6812_T0L_NOPS);
    1494:	0001                	nop
    1496:	0001                	nop
    1498:	0001                	nop
    149a:	0001                	nop
    149c:	0001                	nop
    149e:	0001                	nop
    14a0:	0001                	nop
    14a2:	0001                	nop
    14a4:	0001                	nop
    14a6:	0001                	nop
    14a8:	0001                	nop
    14aa:	0001                	nop
    14ac:	0001                	nop
    14ae:	0001                	nop
    14b0:	0001                	nop
    14b2:	0001                	nop
    14b4:	0001                	nop
    14b6:	0001                	nop
    14b8:	0001                	nop
    14ba:	0001                	nop
}
    14bc:	8082                	ret

000014be <sk6812_send_bit_1>:
	GPIO_SetBits(STATUS_SK6812_PIN);
    14be:	400017b7          	lui	a5,0x40001
    14c2:	0d878793          	addi	a5,a5,216 # 400010d8 <_eusrstack+0x1ffe10d8>
    14c6:	04000713          	li	a4,64
    14ca:	c398                	sw	a4,0(a5)
	SK6812_ADD_N_NOPS(SK6812_T1H_NOPS);
    14cc:	0001                	nop
    14ce:	0001                	nop
    14d0:	0001                	nop
    14d2:	0001                	nop
    14d4:	0001                	nop
    14d6:	0001                	nop
    14d8:	0001                	nop
    14da:	0001                	nop
    14dc:	0001                	nop
    14de:	0001                	nop
    14e0:	0001                	nop
    14e2:	0001                	nop
    14e4:	0001                	nop
    14e6:	0001                	nop
    14e8:	0001                	nop
    14ea:	0001                	nop
	GPIO_ResetBits(STATUS_SK6812_PIN);
    14ec:	400017b7          	lui	a5,0x40001
    14f0:	0cc78793          	addi	a5,a5,204 # 400010cc <_eusrstack+0x1ffe10cc>
    14f4:	c398                	sw	a4,0(a5)
	SK6812_ADD_N_NOPS(SK6812_T1L_NOPS);
    14f6:	0001                	nop
    14f8:	0001                	nop
    14fa:	0001                	nop
    14fc:	0001                	nop
    14fe:	0001                	nop
    1500:	0001                	nop
    1502:	0001                	nop
    1504:	0001                	nop
    1506:	0001                	nop
    1508:	0001                	nop
}
    150a:	8082                	ret

0000150c <sk6812_send_byte>:
{
    150c:	1141                	addi	sp,sp,-16
    150e:	c422                	sw	s0,8(sp)
    1510:	c226                	sw	s1,4(sp)
    1512:	c606                	sw	ra,12(sp)
    1514:	842a                	mv	s0,a0
    1516:	44a1                	li	s1,8
		if( b & 0x80 ) sk6812_send_bit_1();
    1518:	01841793          	slli	a5,s0,0x18
    151c:	87e1                	srai	a5,a5,0x18
    151e:	0007dd63          	bgez	a5,1538 <sk6812_send_byte+0x2c>
    1522:	3f71                	jal	14be <sk6812_send_bit_1>
		b <<= 1;
    1524:	0406                	slli	s0,s0,0x1
	for(int i = 0; i < 8; i++)
    1526:	14fd                	addi	s1,s1,-1
		b <<= 1;
    1528:	0ff47413          	zext.b	s0,s0
	for(int i = 0; i < 8; i++)
    152c:	f4f5                	bnez	s1,1518 <sk6812_send_byte+0xc>
}
    152e:	40b2                	lw	ra,12(sp)
    1530:	4422                	lw	s0,8(sp)
    1532:	4492                	lw	s1,4(sp)
    1534:	0141                	addi	sp,sp,16
    1536:	8082                	ret
		else           sk6812_send_bit_0();
    1538:	3f25                	jal	1470 <sk6812_send_bit_0>
    153a:	b7ed                	j	1524 <sk6812_send_byte+0x18>

0000153c <nfca_pcd_start>:
	R8_NFC_CMD = 0x24;
    153c:	4000e7b7          	lui	a5,0x4000e
    1540:	02400713          	li	a4,36
    1544:	00e78023          	sb	a4,0(a5) # 4000e000 <_eusrstack+0x1ffee000>
	R32_NFC_DRV &= 0xe7ff;
    1548:	4bd8                	lw	a4,20(a5)
    154a:	66b9                	lui	a3,0xe
    154c:	7ff68693          	addi	a3,a3,2047 # e7ff <ch585_grand_finale.c.9f3d4ca2+0xad6e>
    1550:	8f75                	and	a4,a4,a3
    1552:	cbd8                	sw	a4,20(a5)
}

// Clear Interrupt Pending
RV_STATIC_INLINE void NVIC_ClearPendingIRQ(IRQn_Type IRQn)
{
	NVIC->IPRR[((uint32_t)(IRQn) >> 5)] = (1 << ((uint32_t)(IRQn) & 0x1F));
    1554:	e000e7b7          	lui	a5,0xe000e
    1558:	4741                	li	a4,16
    155a:	28e7a223          	sw	a4,644(a5) # e000e284 <_eusrstack+0xbffee284>
	NVIC->IENR[((uint32_t)(IRQn) >> 5)] = (1 << ((uint32_t)(IRQn) & 0x1F));
    155e:	10e7a223          	sw	a4,260(a5)
}
    1562:	8082                	ret

00001564 <nfca_adc_get_ant_signal>:
	tkey_cfg = R8_TKEY_CFG;
    1564:	400017b7          	lui	a5,0x40001
	config = R8_ADC_CFG;
    1568:	400016b7          	lui	a3,0x40001
	sensor = R8_TEM_SENSOR;
    156c:	40001737          	lui	a4,0x40001
	channel = R8_ADC_CHANNEL;
    1570:	40001637          	lui	a2,0x40001
	tkey_cfg = R8_TKEY_CFG;
    1574:	0577c583          	lbu	a1,87(a5) # 40001057 <_eusrstack+0x1ffe1057>
	sensor = R8_TEM_SENSOR;
    1578:	05b74883          	lbu	a7,91(a4) # 4000105b <_eusrstack+0x1ffe105b>
	channel = R8_ADC_CHANNEL;
    157c:	05864703          	lbu	a4,88(a2) # 40001058 <_eusrstack+0x1ffe1058>
	config = R8_ADC_CFG;
    1580:	0596c803          	lbu	a6,89(a3) # 40001059 <_eusrstack+0x1ffe1059>
	R8_TKEY_CFG &= ~RB_TKEY_PWR_ON;
    1584:	0577c503          	lbu	a0,87(a5)
	tkey_cfg = R8_TKEY_CFG;
    1588:	0ff5f593          	zext.b	a1,a1
	sensor = R8_TEM_SENSOR;
    158c:	0ff8f893          	zext.b	a7,a7
	R8_TKEY_CFG &= ~RB_TKEY_PWR_ON;
    1590:	0fe57513          	andi	a0,a0,254
    1594:	04a78ba3          	sb	a0,87(a5)
	R8_ADC_CHANNEL = CH_INTE_NFC;
    1598:	47c1                	li	a5,16
    159a:	04f60c23          	sb	a5,88(a2)
	R8_ADC_CFG = RB_ADC_POWER_ON | RB_ADC_BUF_EN | (SampleFreq_8_or_4 << 6) | (ADC_PGA_1_4 << 4);
    159e:	04300793          	li	a5,67
    15a2:	04f68ca3          	sb	a5,89(a3)
	R8_ADC_CONVERT &= ~RB_ADC_PGA_GAIN2;
    15a6:	400017b7          	lui	a5,0x40001
    15aa:	05a7c683          	lbu	a3,90(a5) # 4000105a <_eusrstack+0x1ffe105a>
    15ae:	05a78793          	addi	a5,a5,90
	channel = R8_ADC_CHANNEL;
    15b2:	0ff77713          	zext.b	a4,a4
	R8_ADC_CONVERT &= ~RB_ADC_PGA_GAIN2;
    15b6:	0fd6f693          	andi	a3,a3,253
    15ba:	00d78023          	sb	a3,0(a5)
	R8_ADC_CONVERT &= ~(3 << 4);
    15be:	0007c683          	lbu	a3,0(a5)
	config = R8_ADC_CFG;
    15c2:	0ff87813          	zext.b	a6,a6
	R8_ADC_CONVERT &= ~(3 << 4);
    15c6:	0cf6f693          	andi	a3,a3,207
    15ca:	00d78023          	sb	a3,0(a5)
		R8_ADC_CONVERT |= RB_ADC_START;
    15ce:	0007c683          	lbu	a3,0(a5)
    15d2:	0016e693          	ori	a3,a3,1
    15d6:	00d78023          	sb	a3,0(a5)
		while (R8_ADC_CONVERT & (RB_ADC_START | RB_ADC_EOC_X));
    15da:	0007c683          	lbu	a3,0(a5)
    15de:	0816f693          	andi	a3,a3,129
    15e2:	fee5                	bnez	a3,15da <nfca_adc_get_ant_signal+0x76>
		adc_data_all = adc_data_all + R16_ADC_DATA;
    15e4:	400016b7          	lui	a3,0x40001
    15e8:	05c68693          	addi	a3,a3,92 # 4000105c <_eusrstack+0x1ffe105c>
    15ec:	0006d683          	lhu	a3,0(a3)
		R8_ADC_CONVERT |= RB_ADC_START;
    15f0:	0007c603          	lbu	a2,0(a5)
		adc_data_all = adc_data_all + R16_ADC_DATA;
    15f4:	06c2                	slli	a3,a3,0x10
		R8_ADC_CONVERT |= RB_ADC_START;
    15f6:	00166613          	ori	a2,a2,1
    15fa:	00c78023          	sb	a2,0(a5)
		while (R8_ADC_CONVERT & (RB_ADC_START | RB_ADC_EOC_X));
    15fe:	40001637          	lui	a2,0x40001
		adc_data_all = adc_data_all + R16_ADC_DATA;
    1602:	82c1                	srli	a3,a3,0x10
		while (R8_ADC_CONVERT & (RB_ADC_START | RB_ADC_EOC_X));
    1604:	05a60613          	addi	a2,a2,90 # 4000105a <_eusrstack+0x1ffe105a>
    1608:	00064783          	lbu	a5,0(a2)
    160c:	0817f793          	andi	a5,a5,129
    1610:	ffe5                	bnez	a5,1608 <nfca_adc_get_ant_signal+0xa4>
		adc_data_all = adc_data_all + R16_ADC_DATA;
    1612:	400017b7          	lui	a5,0x40001
    1616:	05c7d503          	lhu	a0,92(a5) # 4000105c <_eusrstack+0x1ffe105c>
	adc_data = adc_data_all / 2;
    161a:	400017b7          	lui	a5,0x40001
    161e:	05878793          	addi	a5,a5,88 # 40001058 <_eusrstack+0x1ffe1058>
		adc_data_all = adc_data_all + R16_ADC_DATA;
    1622:	9536                	add	a0,a0,a3
	if(channel == CH_INTE_NFC) {
    1624:	46c1                	li	a3,16
	adc_data = adc_data_all / 2;
    1626:	8105                	srli	a0,a0,0x1
	if(channel == CH_INTE_NFC) {
    1628:	00d71363          	bne	a4,a3,162e <nfca_adc_get_ant_signal+0xca>
		R8_ADC_CHANNEL = CH_INTE_VBAT;
    162c:	4739                	li	a4,14
		R8_ADC_CHANNEL = channel;
    162e:	00e78023          	sb	a4,0(a5)
	R8_TEM_SENSOR = sensor;
    1632:	400017b7          	lui	a5,0x40001
    1636:	05178da3          	sb	a7,91(a5) # 4000105b <_eusrstack+0x1ffe105b>
	R8_ADC_CFG = config;
    163a:	400017b7          	lui	a5,0x40001
    163e:	05078ca3          	sb	a6,89(a5) # 40001059 <_eusrstack+0x1ffe1059>
	R8_TKEY_CFG = tkey_cfg;
    1642:	400017b7          	lui	a5,0x40001
    1646:	04b78ba3          	sb	a1,87(a5) # 40001057 <_eusrstack+0x1ffe1057>
}
    164a:	8082                	ret

0000164c <nfca_pcd_wait_comm_end>:
nfca_pcd_controller_state_t nfca_pcd_wait_comm_end(void) {
    164c:	1101                	addi	sp,sp,-32
    164e:	ca26                	sw	s1,20(sp)
    1650:	c84a                	sw	s2,16(sp)
    1652:	c64e                	sw	s3,12(sp)
    1654:	6589                	lui	a1,0x2
    1656:	c452                	sw	s4,8(sp)
    1658:	ce06                	sw	ra,28(sp)
    165a:	cc22                	sw	s0,24(sp)
    165c:	71258593          	addi	a1,a1,1810 # 2712 <__udivdi3+0x318>
		uint32_t combined_words = data_buf[word_index];
    1660:	35c18493          	addi	s1,gp,860 # 20001a5c <gs_nfca_data_buf>
			combined_words |= (uint32_t)data_buf[word_index + 1] << 16;
    1664:	35e18913          	addi	s2,gp,862 # 20001a5e <gs_nfca_data_buf+0x2>
		recv_buf[bytes_processed] = (uint8_t)(nine_bit_packet & 0xFF);
    1668:	25c18993          	addi	s3,gp,604 # 2000195c <g_nfca_pcd_recv_buf>
	if(g_nfca_pcd_comm_status > 2) {
    166c:	c3a1c703          	lbu	a4,-966(gp) # 2000133a <g_nfca_pcd_comm_status>
    1670:	4789                	li	a5,2
    1672:	00e7ee63          	bltu	a5,a4,168e <nfca_pcd_wait_comm_end+0x42>
		if ((status != NFCA_PCD_CONTROLLER_STATE_FREE) || (overtimes > (NFCA_PCD_WAIT_MAX_MS * 10))) {
    1676:	fff58413          	addi	s0,a1,-1
    167a:	e05d                	bnez	s0,1720 <nfca_pcd_wait_comm_end+0xd4>
}
    167c:	40f2                	lw	ra,28(sp)
    167e:	8522                	mv	a0,s0
    1680:	4462                	lw	s0,24(sp)
    1682:	44d2                	lw	s1,20(sp)
    1684:	4942                	lw	s2,16(sp)
    1686:	49b2                	lw	s3,12(sp)
    1688:	4a22                	lw	s4,8(sp)
    168a:	6105                	addi	sp,sp,32
    168c:	8082                	ret
		if(g_nfca_pcd_intf_mode) {
    168e:	c341c783          	lbu	a5,-972(gp) # 20001334 <g_nfca_pcd_intf_mode>
    1692:	e789                	bnez	a5,169c <nfca_pcd_wait_comm_end+0x50>
		return g_nfca_pcd_comm_status;
    1694:	c3a1c403          	lbu	s0,-966(gp) # 2000133a <g_nfca_pcd_comm_status>
		if ((status != NFCA_PCD_CONTROLLER_STATE_FREE) || (overtimes > (NFCA_PCD_WAIT_MAX_MS * 10))) {
    1698:	dc79                	beqz	s0,1676 <nfca_pcd_wait_comm_end+0x2a>
    169a:	b7cd                	j	167c <nfca_pcd_wait_comm_end+0x30>
			R8_NFC_CMD &= 0xef;
    169c:	4000e737          	lui	a4,0x4000e
    16a0:	00074783          	lbu	a5,0(a4) # 4000e000 <_eusrstack+0x1ffee000>
    16a4:	0ef7f793          	andi	a5,a5,239
    16a8:	00f70023          	sb	a5,0(a4)
			g_nfca_pcd_recv_buf_len = nfca_pcd_separate_recv_data(gs_nfca_data_buf, g_nfca_pcd_recv_bits, g_nfca_pcd_buf_offset, g_nfca_pcd_recv_buf, g_nfca_parity_buf, NFCA_PCD_MAX_RECV_NUM);
    16ac:	c301a503          	lw	a0,-976(gp) # 20001330 <g_nfca_pcd_recv_bits>
	uint32_t current_total_bit_pos = buf_offset;
    16b0:	c241c603          	lbu	a2,-988(gp) # 20001324 <g_nfca_pcd_buf_offset>
    16b4:	0542                	slli	a0,a0,0x10
    16b6:	8141                	srli	a0,a0,0x10
		if (bits_remaining < 9) {
    16b8:	47a1                	li	a5,8
    16ba:	fca7fde3          	bgeu	a5,a0,1694 <nfca_pcd_wait_comm_end+0x48>
	for (bytes_processed = 0; bytes_processed < output_len; ++bytes_processed) {
    16be:	4701                	li	a4,0
		parity_buf[bytes_processed] = (uint8_t)((nine_bit_packet >> 8) & 0x01);
    16c0:	15c18813          	addi	a6,gp,348 # 2000185c <g_nfca_parity_buf>
	for (bytes_processed = 0; bytes_processed < output_len; ++bytes_processed) {
    16c4:	10000893          	li	a7,256
		if (bits_remaining < 9) {
    16c8:	4e25                	li	t3,9
    16ca:	4ea1                	li	t4,8
		uint32_t word_index = current_total_bit_pos / 16;
    16cc:	00465693          	srli	a3,a2,0x4
		uint32_t combined_words = data_buf[word_index];
    16d0:	0686                	slli	a3,a3,0x1
    16d2:	009687b3          	add	a5,a3,s1
		if (bit_pos_in_word > (16 - 9)) {
    16d6:	00867f13          	andi	t5,a2,8
		uint32_t combined_words = data_buf[word_index];
    16da:	0007d783          	lhu	a5,0(a5)
		uint32_t bit_pos_in_word = current_total_bit_pos % 16;
    16de:	00f67313          	andi	t1,a2,15
		if (bit_pos_in_word > (16 - 9)) {
    16e2:	000f0763          	beqz	t5,16f0 <nfca_pcd_wait_comm_end+0xa4>
			combined_words |= (uint32_t)data_buf[word_index + 1] << 16;
    16e6:	96ca                	add	a3,a3,s2
    16e8:	0006d683          	lhu	a3,0(a3)
    16ec:	06c2                	slli	a3,a3,0x10
    16ee:	8fd5                	or	a5,a5,a3
		uint16_t nine_bit_packet = (combined_words >> bit_pos_in_word) & 0x1FF;
    16f0:	0067d7b3          	srl	a5,a5,t1
		recv_buf[bytes_processed] = (uint8_t)(nine_bit_packet & 0xFF);
    16f4:	013706b3          	add	a3,a4,s3
		uint16_t nine_bit_packet = (combined_words >> bit_pos_in_word) & 0x1FF;
    16f8:	1ff7f793          	andi	a5,a5,511
		recv_buf[bytes_processed] = (uint8_t)(nine_bit_packet & 0xFF);
    16fc:	00f68023          	sb	a5,0(a3)
		parity_buf[bytes_processed] = (uint8_t)((nine_bit_packet >> 8) & 0x01);
    1700:	010706b3          	add	a3,a4,a6
    1704:	83a1                	srli	a5,a5,0x8
    1706:	00f68023          	sb	a5,0(a3)
	for (bytes_processed = 0; bytes_processed < output_len; ++bytes_processed) {
    170a:	0705                	addi	a4,a4,1
		current_total_bit_pos += 9;
    170c:	0625                	addi	a2,a2,9
	for (bytes_processed = 0; bytes_processed < output_len; ++bytes_processed) {
    170e:	f91703e3          	beq	a4,a7,1694 <nfca_pcd_wait_comm_end+0x48>
		if (bits_remaining < 9) {
    1712:	03c707b3          	mul	a5,a4,t3
    1716:	40f507b3          	sub	a5,a0,a5
    171a:	fafee9e3          	bltu	t4,a5,16cc <nfca_pcd_wait_comm_end+0x80>
    171e:	bf9d                	j	1694 <nfca_pcd_wait_comm_end+0x48>
		Delay_Us(100);
    1720:	6509                	lui	a0,0x2
    1722:	83850513          	addi	a0,a0,-1992 # 1838 <nfca_pcd_comm.part.0.constprop.0+0x10c>
    1726:	39bd                	jal	13a4 <DelaySysTick>
		status = nfca_pcd_get_comm_status();
    1728:	85a2                	mv	a1,s0
    172a:	b789                	j	166c <nfca_pcd_wait_comm_end+0x20>

0000172c <nfca_pcd_comm.part.0.constprop.0>:
	if (num_bits <= 3) {
    172c:	468d                	li	a3,3
    172e:	35c18793          	addi	a5,gp,860 # 20001a5c <gs_nfca_data_buf>
		return 0;
    1732:	4701                	li	a4,0
	if (num_bits <= 3) {
    1734:	06a6f163          	bgeu	a3,a0,1796 <nfca_pcd_comm.part.0.constprop.0+0x6a>
	uint16_t num_bytes = (num_bits + 7) / 8;
    1738:	00750713          	addi	a4,a0,7
    173c:	870d                	srai	a4,a4,0x3
	if (num_bytes > output_len) {
    173e:	10000693          	li	a3,256
    1742:	00e6d463          	bge	a3,a4,174a <nfca_pcd_comm.part.0.constprop.0+0x1e>
    1746:	10000713          	li	a4,256
    174a:	0742                	slli	a4,a4,0x10
		data_buf[i] = (uint16_t)send_buf[i] | (parity_buf[i] ? 0x0100 : 0);
    174c:	8341                	srli	a4,a4,0x10
    174e:	85be                	mv	a1,a5
	if (num_bytes > output_len) {
    1750:	4601                	li	a2,0
		data_buf[i] = (uint16_t)send_buf[i] | (parity_buf[i] ? 0x0100 : 0);
    1752:	15c18893          	addi	a7,gp,348 # 2000185c <g_nfca_parity_buf>
    1756:	04c18813          	addi	a6,gp,76 # 2000174c <g_nfca_pcd_send_buf>
    175a:	011606b3          	add	a3,a2,a7
    175e:	0006c683          	lbu	a3,0(a3)
    1762:	01060333          	add	t1,a2,a6
    1766:	00034303          	lbu	t1,0(t1)
    176a:	00d036b3          	snez	a3,a3
    176e:	06a2                	slli	a3,a3,0x8
    1770:	0066e6b3          	or	a3,a3,t1
	for (uint16_t i = 0; i < num_bytes; ++i) {
    1774:	0605                	addi	a2,a2,1
		data_buf[i] = (uint16_t)send_buf[i] | (parity_buf[i] ? 0x0100 : 0);
    1776:	00d59023          	sh	a3,0(a1)
	for (uint16_t i = 0; i < num_bytes; ++i) {
    177a:	01061693          	slli	a3,a2,0x10
    177e:	82c1                	srli	a3,a3,0x10
    1780:	0589                	addi	a1,a1,2
    1782:	fce6ece3          	bltu	a3,a4,175a <nfca_pcd_comm.part.0.constprop.0+0x2e>
	return (num_bytes * 9) - ((num_bytes * 8) - num_bits);
    1786:	46a5                	li	a3,9
    1788:	02d706b3          	mul	a3,a4,a3
    178c:	070e                	slli	a4,a4,0x3
    178e:	40a70533          	sub	a0,a4,a0
    1792:	40a68733          	sub	a4,a3,a0
	R8_NFC_STATUS = 0; // Clear control register
    1796:	4000e6b7          	lui	a3,0x4000e
    179a:	000680a3          	sb	zero,1(a3) # 4000e001 <_eusrstack+0x1ffee001>
    179e:	4000e637          	lui	a2,0x4000e
	R8_NFC_CMD &= ~(0x11);
    17a2:	00064683          	lbu	a3,0(a2) # 4000e000 <_eusrstack+0x1ffee000>
    17a6:	0ee6f693          	andi	a3,a3,238
    17aa:	00d60023          	sb	a3,0(a2)
	g_nfca_pcd_intf_mode = mode;
    17ae:	4605                	li	a2,1
    17b0:	c2c18a23          	sb	a2,-972(gp) # 20001334 <g_nfca_pcd_intf_mode>
	R16_NFC_RXTX_LEN = (uint16_t)prepared_byte_len;
    17b4:	01071613          	slli	a2,a4,0x10
	g_nfca_pcd_buf_offset = offset;
    17b8:	c2018223          	sb	zero,-988(gp) # 20001324 <g_nfca_pcd_buf_offset>
	R16_NFC_RXTX_LEN = (uint16_t)prepared_byte_len;
    17bc:	8241                	srli	a2,a2,0x10
    17be:	4000e6b7          	lui	a3,0x4000e
    17c2:	00c69423          	sh	a2,8(a3) # 4000e008 <_eusrstack+0x1ffee008>
	int num_words = (prepared_byte_len + 8) / 9;
    17c6:	4625                	li	a2,9
    17c8:	00870693          	addi	a3,a4,8
    17cc:	02c6c6b3          	div	a3,a3,a2
	if (prepared_byte_len > 72) {
    17d0:	04800613          	li	a2,72
    17d4:	00e64c63          	blt	a2,a4,17ec <nfca_pcd_comm.part.0.constprop.0+0xc0>
			R16_NFC_FIFO = gs_nfca_data_buf[i];
    17d8:	4000e637          	lui	a2,0x4000e
		for (int i = 0; i < num_words; i++) {
    17dc:	4701                	li	a4,0
			R16_NFC_FIFO = gs_nfca_data_buf[i];
    17de:	0631                	addi	a2,a2,12 # 4000e00c <_eusrstack+0x1ffee00c>
		for (int i = 0; i < num_words; i++) {
    17e0:	04d74d63          	blt	a4,a3,183a <nfca_pcd_comm.part.0.constprop.0+0x10e>
		g_nfca_pcd_send_fifo_bytes = num_words;
    17e4:	01069793          	slli	a5,a3,0x10
    17e8:	83c1                	srli	a5,a5,0x10
    17ea:	a831                	j	1806 <nfca_pcd_comm.part.0.constprop.0+0xda>
			R16_NFC_FIFO = gs_nfca_data_buf[i];
    17ec:	4000e737          	lui	a4,0x4000e
    17f0:	01078613          	addi	a2,a5,16
    17f4:	0731                	addi	a4,a4,12 # 4000e00c <_eusrstack+0x1ffee00c>
    17f6:	0007d583          	lhu	a1,0(a5)
		for (int i = 0; i < 8; i++) {
    17fa:	0789                	addi	a5,a5,2
			R16_NFC_FIFO = gs_nfca_data_buf[i];
    17fc:	00b71023          	sh	a1,0(a4)
		for (int i = 0; i < 8; i++) {
    1800:	fef61be3          	bne	a2,a5,17f6 <nfca_pcd_comm.part.0.constprop.0+0xca>
    1804:	47a1                	li	a5,8
		g_nfca_pcd_send_fifo_bytes = 8;
    1806:	c2f19c23          	sh	a5,-968(gp) # 20001338 <g_nfca_pcd_send_fifo_bytes>
	g_nfca_pcd_send_total_bytes = num_words;
    180a:	c2d19b23          	sh	a3,-970(gp) # 20001336 <g_nfca_pcd_send_total_bytes>
	g_nfca_pcd_comm_status = 1; // Status: Transmitting
    180e:	4705                	li	a4,1
    1810:	c2e18d23          	sb	a4,-966(gp) # 2000133a <g_nfca_pcd_comm_status>
	R16_NFC_INTF_STATUS = 9;
    1814:	46a5                	li	a3,9
    1816:	4000e7b7          	lui	a5,0x4000e
    181a:	00d79223          	sh	a3,4(a5) # 4000e004 <_eusrstack+0x1ffee004>
	R8_NFC_STATUS = 9;
    181e:	4000e7b7          	lui	a5,0x4000e
	R16_NFC_INTF_STATUS = 9;
    1822:	4000e737          	lui	a4,0x4000e
	R8_NFC_STATUS = 9;
    1826:	00d780a3          	sb	a3,1(a5) # 4000e001 <_eusrstack+0x1ffee001>
	R8_NFC_CMD |= (mode ? 9 : 1);
    182a:	00074783          	lbu	a5,0(a4) # 4000e000 <_eusrstack+0x1ffee000>
}
    182e:	4501                	li	a0,0
	R8_NFC_CMD |= (mode ? 9 : 1);
    1830:	0097e793          	ori	a5,a5,9
    1834:	00f70023          	sb	a5,0(a4)
}
    1838:	8082                	ret
			R16_NFC_FIFO = gs_nfca_data_buf[i];
    183a:	0007d583          	lhu	a1,0(a5)
		for (int i = 0; i < num_words; i++) {
    183e:	0705                	addi	a4,a4,1
    1840:	0789                	addi	a5,a5,2
			R16_NFC_FIFO = gs_nfca_data_buf[i];
    1842:	00b61023          	sh	a1,0(a2)
    1846:	bf69                	j	17e0 <nfca_pcd_comm.part.0.constprop.0+0xb4>

00001848 <sk6812_set_grbw.constprop.0>:
static void sk6812_set_grbw(uint8_t g, uint8_t r, uint8_t b, uint8_t w)
    1848:	1141                	addi	sp,sp,-16
    184a:	c226                	sw	s1,4(sp)
    184c:	c04a                	sw	s2,0(sp)
    184e:	c606                	sw	ra,12(sp)
    1850:	c422                	sw	s0,8(sp)
    1852:	892e                	mv	s2,a1
    1854:	84b2                	mv	s1,a2
    uint32_t result; __ASM volatile( ADD_ARCH_ZICSR "csrr %0," "mstatus": "=r"(result) );
    1856:	30002473          	csrr	s0,mstatus
	uint32_t result; __ASM volatile( ADD_ARCH_ZICSR "csrr %0," "mstatus": "=r"(result) );
    185a:	300027f3          	csrr	a5,mstatus
	result &= ~0x88; __ASM volatile( ADD_ARCH_ZICSR "csrw mstatus, %0" : : "r" (result) );
    185e:	f777f793          	andi	a5,a5,-137
    1862:	30079073          	csrw	mstatus,a5
	sk6812_send_byte(g);
    1866:	315d                	jal	150c <sk6812_send_byte>
	sk6812_send_byte(r);
    1868:	854a                	mv	a0,s2
    186a:	314d                	jal	150c <sk6812_send_byte>
	sk6812_send_byte(b);
    186c:	8526                	mv	a0,s1
    186e:	3979                	jal	150c <sk6812_send_byte>
	sk6812_send_byte(w);
    1870:	4501                	li	a0,0
    return (result & 0x08) != 0u;
    1872:	8821                	andi	s0,s0,8
    1874:	3961                	jal	150c <sk6812_send_byte>
	if( irq_was_enabled ) __enable_irq();
    1876:	c419                	beqz	s0,1884 <sk6812_set_grbw.constprop.0+0x3c>
	uint32_t result; __ASM volatile( ADD_ARCH_ZICSR "csrr %0," "mstatus": "=r"(result) );
    1878:	300027f3          	csrr	a5,mstatus
	result |= 0x88;  __ASM volatile( ADD_ARCH_ZICSR "csrw mstatus, %0" : : "r" (result) );
    187c:	0887e793          	ori	a5,a5,136
    1880:	30079073          	csrw	mstatus,a5
}
    1884:	4422                	lw	s0,8(sp)
	GPIO_ResetBits(STATUS_SK6812_PIN);
    1886:	400017b7          	lui	a5,0x40001
}
    188a:	40b2                	lw	ra,12(sp)
    188c:	4492                	lw	s1,4(sp)
    188e:	4902                	lw	s2,0(sp)
	GPIO_ResetBits(STATUS_SK6812_PIN);
    1890:	0cc78793          	addi	a5,a5,204 # 400010cc <_eusrstack+0x1ffe10cc>
    1894:	04000713          	li	a4,64
    1898:	c398                	sw	a4,0(a5)
	Delay_Ms(1);
    189a:	653d                	lui	a0,0xf
    189c:	3c050513          	addi	a0,a0,960 # f3c0 <ch585_grand_finale.c.9f3d4ca2+0xb92f>
}
    18a0:	0141                	addi	sp,sp,16
	Delay_Ms(1);
    18a2:	b609                	j	13a4 <DelaySysTick>

000018a4 <sk6812_set_rgb>:
{
    18a4:	87ae                	mv	a5,a1
	sk6812_set_grbw(g, r, b, SK6812_W_BRIGHT);
    18a6:	85aa                	mv	a1,a0
    18a8:	853e                	mv	a0,a5
    18aa:	bf79                	j	1848 <sk6812_set_grbw.constprop.0>

000018ac <audio_init.part.0>:
	case GPIO_ModeOut_PP_5mA:
		*(&R32_PA_PD_DRV + OFFSET_FOR_GPIOB(pin)) &= ~(pin & ~PB);
		*(&R32_PA_DIR + OFFSET_FOR_GPIOB(pin))    |= (pin & ~PB);
		break;
	case GPIO_ModeOut_PP_20mA:
		*(&R32_PA_PD_DRV + OFFSET_FOR_GPIOB(pin)) |= (pin & ~PB);
    18ac:	400017b7          	lui	a5,0x40001
    18b0:	0d478793          	addi	a5,a5,212 # 400010d4 <_eusrstack+0x1ffe10d4>
    18b4:	4398                	lw	a4,0(a5)
	R8_PWM6_DATA = AUDIO_PWM_MIDPOINT;
    18b6:	f8000613          	li	a2,-128
    18ba:	00176713          	ori	a4,a4,1
    18be:	c398                	sw	a4,0(a5)
		*(&R32_PA_DIR + OFFSET_FOR_GPIOB(pin))    |= (pin & ~PB);
    18c0:	400017b7          	lui	a5,0x40001
    18c4:	0c078793          	addi	a5,a5,192 # 400010c0 <_eusrstack+0x1ffe10c0>
    18c8:	4398                	lw	a4,0(a5)
    18ca:	00176713          	ori	a4,a4,1
    18ce:	c398                	sw	a4,0(a5)
	R8_PWM_OUT_EN &= (uint8_t)~RB_PWM6_OUT_EN;
    18d0:	40005737          	lui	a4,0x40005
    18d4:	00074783          	lbu	a5,0(a4) # 40005000 <_eusrstack+0x1ffe5000>
    18d8:	0fb7f793          	andi	a5,a5,251
    18dc:	00f70023          	sb	a5,0(a4)
	R8_PWM_CONFIG &= (uint8_t)~(RB_PWM_CYC_MOD | RB_PWM_CYCLE_SEL | RB_PWM6_7_STAG_EN);
    18e0:	400057b7          	lui	a5,0x40005
    18e4:	0027c683          	lbu	a3,2(a5) # 40005002 <_eusrstack+0x1ffe5002>
    18e8:	0d26f693          	andi	a3,a3,210
    18ec:	00d78123          	sb	a3,2(a5)
	R8_PWM_CONFIG |= RB_PWM_CYCLE_SEL;
    18f0:	0027c683          	lbu	a3,2(a5)
    18f4:	0016e693          	ori	a3,a3,1
    18f8:	00d78123          	sb	a3,2(a5)
	R8_PWM_POLAR &= (uint8_t)~RB_PWM6_POLAR;
    18fc:	400057b7          	lui	a5,0x40005
    1900:	0017c683          	lbu	a3,1(a5) # 40005001 <_eusrstack+0x1ffe5001>
    1904:	0fb6f693          	andi	a3,a3,251
    1908:	00d780a3          	sb	a3,1(a5)
	R8_PWM_CLOCK_DIV = AUDIO_PWM_CLOCK_DIV;
    190c:	400057b7          	lui	a5,0x40005
    1910:	4685                	li	a3,1
    1912:	00d781a3          	sb	a3,3(a5) # 40005003 <_eusrstack+0x1ffe5003>
	R8_PWM6_DATA = AUDIO_PWM_MIDPOINT;
    1916:	400057b7          	lui	a5,0x40005
    191a:	00c78323          	sb	a2,6(a5) # 40005006 <_eusrstack+0x1ffe5006>
	R8_PWM_OUT_EN |= RB_PWM6_OUT_EN;
    191e:	00074783          	lbu	a5,0(a4)
    1922:	0047e793          	ori	a5,a5,4
    1926:	00f70023          	sb	a5,0(a4)
	g_audio_pwm_initialized = 1;
    192a:	c0d18823          	sb	a3,-1008(gp) # 20001310 <g_audio_pwm_initialized>
}
    192e:	8082                	ret

00001930 <handle_reset>:
    1930:	20000197          	auipc	gp,0x20000
    1934:	dd018193          	addi	gp,gp,-560 # 20001700 <__global_pointer$>
    1938:	2001e117          	auipc	sp,0x2001e
    193c:	6c810113          	addi	sp,sp,1736 # 20020000 <_eusrstack>
    1940:	c1018513          	addi	a0,gp,-1008 # 20001310 <g_audio_pwm_initialized>
    1944:	20000597          	auipc	a1,0x20000
    1948:	5fc58593          	addi	a1,a1,1532 # 20001f40 <_ebss>
    194c:	00b57763          	bgeu	a0,a1,195a <handle_reset+0x2a>
    1950:	00052023          	sw	zero,0(a0)
    1954:	0511                	addi	a0,a0,4
    1956:	feb56de3          	bltu	a0,a1,1950 <handle_reset+0x20>
    195a:	0a000513          	li	a0,160
    195e:	1fffe597          	auipc	a1,0x1fffe
    1962:	6a258593          	addi	a1,a1,1698 # 20000000 <blink>
    1966:	20000617          	auipc	a2,0x20000
    196a:	99e60613          	addi	a2,a2,-1634 # 20001304 <_data_vma>
    196e:	00c5fa63          	bgeu	a1,a2,1982 <handle_reset+0x52>
    1972:	00052283          	lw	t0,0(a0)
    1976:	0055a023          	sw	t0,0(a1)
    197a:	0511                	addi	a0,a0,4
    197c:	0591                	addi	a1,a1,4
    197e:	fec5eae3          	bltu	a1,a2,1972 <handle_reset+0x42>
    1982:	00001517          	auipc	a0,0x1
    1986:	0fa50513          	addi	a0,a0,250 # 2a7c <_data_lma>
    198a:	c0418593          	addi	a1,gp,-1020 # 20001304 <_data_vma>
    198e:	c1018613          	addi	a2,gp,-1008 # 20001310 <g_audio_pwm_initialized>
    1992:	00c58a63          	beq	a1,a2,19a6 <handle_reset+0x76>
    1996:	00052283          	lw	t0,0(a0)
    199a:	0055a023          	sw	t0,0(a1)
    199e:	0511                	addi	a0,a0,4
    19a0:	0591                	addi	a1,a1,4
    19a2:	fec5eae3          	bltu	a1,a2,1996 <handle_reset+0x66>
    19a6:	00000793          	li	a5,0
    19aa:	42fd                	li	t0,31
    19ac:	bc029073          	csrw	0xbc0,t0
    19b0:	6289                	lui	t0,0x2
    19b2:	88828293          	addi	t0,t0,-1912 # 1888 <sk6812_set_grbw.constprop.0+0x40>
    19b6:	3002a073          	csrs	mstatus,t0
    19ba:	ffffe297          	auipc	t0,0xffffe
    19be:	64628293          	addi	t0,t0,1606 # 0 <InterruptVector>
    19c2:	0032e293          	ori	t0,t0,3
    19c6:	30529073          	csrw	mtvec,t0
    19ca:	e000f7b7          	lui	a5,0xe000f
    19ce:	4715                	li	a4,5
    19d0:	c398                	sw	a4,0(a5)
    19d2:	6789                	lui	a5,0x2
    19d4:	08278793          	addi	a5,a5,130 # 2082 <main>
    19d8:	34179073          	csrw	mepc,a5
    19dc:	30200073          	mret

000019e0 <ADC1_2_IRQHandler>:
    19e0:	a001                	j	19e0 <ADC1_2_IRQHandler>

000019e2 <USB_IRQHandler>:
{
    19e2:	715d                	addi	sp,sp,-80
    19e4:	d03e                	sw	a5,32(sp)
	uint16_t intfgst = *(uint16_t*)(&USBFS->INT_FG);
    19e6:	400087b7          	lui	a5,0x40008
    19ea:	0799                	addi	a5,a5,6 # 40008006 <_eusrstack+0x1ffe8006>
    19ec:	0007d783          	lhu	a5,0(a5)
{
    19f0:	de22                	sw	s0,60(sp)
    19f2:	d23a                	sw	a4,36(sp)
    19f4:	c686                	sw	ra,76(sp)
    19f6:	c496                	sw	t0,72(sp)
    19f8:	c29a                	sw	t1,68(sp)
    19fa:	c09e                	sw	t2,64(sp)
    19fc:	dc26                	sw	s1,56(sp)
    19fe:	da2a                	sw	a0,52(sp)
    1a00:	d82e                	sw	a1,48(sp)
    1a02:	d632                	sw	a2,44(sp)
    1a04:	d436                	sw	a3,40(sp)
    1a06:	ce42                	sw	a6,28(sp)
    1a08:	cc46                	sw	a7,24(sp)
    1a0a:	ca4a                	sw	s2,20(sp)
    1a0c:	c84e                	sw	s3,16(sp)
    1a0e:	c672                	sw	t3,12(sp)
    1a10:	c476                	sw	t4,8(sp)
    1a12:	c27a                	sw	t5,4(sp)
    1a14:	c07e                	sw	t6,0(sp)
	if( intfgst & CRB_UIF_TRANSFER )
    1a16:	0027f713          	andi	a4,a5,2
	uint16_t intfgst = *(uint16_t*)(&USBFS->INT_FG);
    1a1a:	40008437          	lui	s0,0x40008
	if( intfgst & CRB_UIF_TRANSFER )
    1a1e:	42070b63          	beqz	a4,1e54 <USB_IRQHandler+0x472>
		int token = ( intfgst & CMASK_UIS_TOKEN) >> 12;
    1a22:	40c7d713          	srai	a4,a5,0xc
		int ep = ( intfgst & CMASK_UIS_ENDP ) >> 8;
    1a26:	4087d593          	srai	a1,a5,0x8
		int token = ( intfgst & CMASK_UIS_TOKEN) >> 12;
    1a2a:	8b0d                	andi	a4,a4,3
		switch ( token )
    1a2c:	4689                	li	a3,2
		int ep = ( intfgst & CMASK_UIS_ENDP ) >> 8;
    1a2e:	89bd                	andi	a1,a1,15
		switch ( token )
    1a30:	04d70363          	beq	a4,a3,1a76 <USB_IRQHandler+0x94>
    1a34:	468d                	li	a3,3
    1a36:	1ed70163          	beq	a4,a3,1c18 <USB_IRQHandler+0x236>
    1a3a:	12070d63          	beqz	a4,1b74 <USB_IRQHandler+0x192>
		USBFS->INT_FG = CRB_UIF_TRANSFER;
    1a3e:	400087b7          	lui	a5,0x40008
    1a42:	4709                	li	a4,2
    1a44:	00e78323          	sb	a4,6(a5) # 40008006 <_eusrstack+0x1ffe8006>
}
    1a48:	5472                	lw	s0,60(sp)
    1a4a:	40b6                	lw	ra,76(sp)
    1a4c:	42a6                	lw	t0,72(sp)
    1a4e:	4316                	lw	t1,68(sp)
    1a50:	4386                	lw	t2,64(sp)
    1a52:	54e2                	lw	s1,56(sp)
    1a54:	5552                	lw	a0,52(sp)
    1a56:	55c2                	lw	a1,48(sp)
    1a58:	5632                	lw	a2,44(sp)
    1a5a:	56a2                	lw	a3,40(sp)
    1a5c:	5712                	lw	a4,36(sp)
    1a5e:	5782                	lw	a5,32(sp)
    1a60:	4872                	lw	a6,28(sp)
    1a62:	48e2                	lw	a7,24(sp)
    1a64:	4952                	lw	s2,20(sp)
    1a66:	49c2                	lw	s3,16(sp)
    1a68:	4e32                	lw	t3,12(sp)
    1a6a:	4ea2                	lw	t4,8(sp)
    1a6c:	4f12                	lw	t5,4(sp)
    1a6e:	4f82                	lw	t6,0(sp)
    1a70:	6161                	addi	sp,sp,80
    1a72:	30200073          	mret
			if( ep )
    1a76:	c99d                	beqz	a1,1aac <USB_IRQHandler+0xca>
				if( ep < FUSB_CONFIG_EPS )
    1a78:	fcb743e3          	blt	a4,a1,1a3e <USB_IRQHandler+0x5c>
					UEP_CTRL_TX(ep) ^= USBFS_UEP_T_TOG;
    1a7c:	400087b7          	lui	a5,0x40008
    1a80:	02278793          	addi	a5,a5,34 # 40008022 <_eusrstack+0x1ffe8022>
    1a84:	00259713          	slli	a4,a1,0x2
    1a88:	973e                	add	a4,a4,a5
    1a8a:	00074783          	lbu	a5,0(a4)
    1a8e:	0407c793          	xori	a5,a5,64
						UEP_CTRL_TX(ep) = ( UEP_CTRL_TX(ep) & ~USBFS_UEP_T_RES_MASK ) | USBFS_UEP_T_RES_NAK;
    1a92:	9bf1                	andi	a5,a5,-4
    1a94:	0027e793          	ori	a5,a5,2
    1a98:	00f70023          	sb	a5,0(a4)
					ctx->USBFS_Endp_Busy[ ep ] = 0;
    1a9c:	200027b7          	lui	a5,0x20002
    1aa0:	e5c78793          	addi	a5,a5,-420 # 20001e5c <USBFSCTX>
    1aa4:	97ae                	add	a5,a5,a1
    1aa6:	0e078023          	sb	zero,224(a5)
    1aaa:	bf51                	j	1a3e <USB_IRQHandler+0x5c>
				if( ctx->USBFS_SetupReqLen == 0 )
    1aac:	20002437          	lui	s0,0x20002
    1ab0:	e5c40793          	addi	a5,s0,-420 # 20001e5c <USBFSCTX>
    1ab4:	0027d783          	lhu	a5,2(a5)
    1ab8:	e5c40413          	addi	s0,s0,-420
    1abc:	e799                	bnez	a5,1aca <USB_IRQHandler+0xe8>
					UEP_CTRL_TX(0) = USBFS_UEP_R_RES_ACK | USBFS_UEP_R_TOG;
    1abe:	400087b7          	lui	a5,0x40008
    1ac2:	f8000713          	li	a4,-128
    1ac6:	02e78123          	sb	a4,34(a5) # 40008022 <_eusrstack+0x1ffe8022>
				if( ctx->pCtrlPayloadPtr )
    1aca:	00c42983          	lw	s3,12(s0)
				ctx->USBFS_errata_dont_send_endpoint_in_window = 0;
    1ace:	0e0401a3          	sb	zero,227(s0)
				if( ctx->pCtrlPayloadPtr )
    1ad2:	04098d63          	beqz	s3,1b2c <USB_IRQHandler+0x14a>
					len = ctx->USBFS_SetupReqLen >= DEF_USBD_UEP0_SIZE ? DEF_USBD_UEP0_SIZE : ctx->USBFS_SetupReqLen;
    1ad6:	00245483          	lhu	s1,2(s0)
    1ada:	04000793          	li	a5,64
    1ade:	8926                	mv	s2,s1
    1ae0:	0097f463          	bgeu	a5,s1,1ae8 <USB_IRQHandler+0x106>
    1ae4:	04000913          	li	s2,64
    1ae8:	0942                	slli	s2,s2,0x10
    1aea:	01095913          	srli	s2,s2,0x10
					ctx->USBFS_SetupReqLen -= len;
    1aee:	412484b3          	sub	s1,s1,s2
					copyBuffer( ctrl0buff, ctx->pCtrlPayloadPtr, len ); // FYI -> Would need to do this if using DMA
    1af2:	20002537          	lui	a0,0x20002
					ctx->USBFS_SetupReqLen -= len;
    1af6:	04c2                	slli	s1,s1,0x10
					copyBuffer( ctrl0buff, ctx->pCtrlPayloadPtr, len ); // FYI -> Would need to do this if using DMA
    1af8:	864a                	mv	a2,s2
    1afa:	85ce                	mv	a1,s3
    1afc:	e6c50513          	addi	a0,a0,-404 # 20001e6c <USBFSCTX+0x10>
					ctx->USBFS_SetupReqLen -= len;
    1b00:	80c1                	srli	s1,s1,0x10
					copyBuffer( ctrl0buff, ctx->pCtrlPayloadPtr, len ); // FYI -> Would need to do this if using DMA
    1b02:	2e75                	jal	1ebe <memcpy>
					ctx->USBFS_SetupReqLen -= len;
    1b04:	00941123          	sh	s1,2(s0)
						ctx->pCtrlPayloadPtr = 0;
    1b08:	4781                	li	a5,0
					if( ctx->USBFS_SetupReqLen > 0 )
    1b0a:	c099                	beqz	s1,1b10 <USB_IRQHandler+0x12e>
						ctx->pCtrlPayloadPtr += len;
    1b0c:	012987b3          	add	a5,s3,s2
    1b10:	c45c                	sw	a5,12(s0)
					UEP_CTRL_LEN(0) = len;
    1b12:	400087b7          	lui	a5,0x40008
    1b16:	03278023          	sb	s2,32(a5) # 40008020 <_eusrstack+0x1ffe8020>
						UEP_CTRL_TX(0) ^= USBFS_UEP_T_TOG;
    1b1a:	400087b7          	lui	a5,0x40008
    1b1e:	0227c703          	lbu	a4,34(a5) # 40008022 <_eusrstack+0x1ffe8022>
    1b22:	04074713          	xori	a4,a4,64
			UEP_CTRL_TX(0) = USBFS_UEP_T_TOG | USBFS_UEP_T_RES_STALL | USBFS_UEP_R_TOG | USBFS_UEP_R_RES_STALL;
    1b26:	02e78123          	sb	a4,34(a5)
    1b2a:	bf11                	j	1a3e <USB_IRQHandler+0x5c>
				else if ( ( ctx->USBFS_SetupReqType & USB_REQ_TYP_MASK ) != USB_REQ_TYP_STANDARD )
    1b2c:	00144783          	lbu	a5,1(s0)
    1b30:	0607f793          	andi	a5,a5,96
    1b34:	cf99                	beqz	a5,1b52 <USB_IRQHandler+0x170>
					if( len && USBFSCTX.USBFS_SetupReqCode != HID_GET_REPORT )
    1b36:	00245783          	lhu	a5,2(s0)
    1b3a:	f00782e3          	beqz	a5,1a3e <USB_IRQHandler+0x5c>
    1b3e:	00044703          	lbu	a4,0(s0)
    1b42:	4785                	li	a5,1
    1b44:	eef70de3          	beq	a4,a5,1a3e <USB_IRQHandler+0x5c>
						UEP_CTRL_LEN(0) = len;
    1b48:	400087b7          	lui	a5,0x40008
    1b4c:	02078023          	sb	zero,32(a5) # 40008020 <_eusrstack+0x1ffe8020>
    1b50:	b7e9                	j	1b1a <USB_IRQHandler+0x138>
					switch( USBFSCTX.USBFS_SetupReqCode )
    1b52:	00044703          	lbu	a4,0(s0)
    1b56:	4795                	li	a5,5
    1b58:	eef713e3          	bne	a4,a5,1a3e <USB_IRQHandler+0x5c>
							USBFS->DEV_ADDR = ( USBFS->DEV_ADDR & USBFS_UDA_GP_BIT ) | ctx->USBFS_DevAddr;
    1b5c:	400086b7          	lui	a3,0x40008
    1b60:	0036c703          	lbu	a4,3(a3) # 40008003 <_eusrstack+0x1ffe8003>
    1b64:	00944783          	lbu	a5,9(s0)
    1b68:	08077713          	andi	a4,a4,128
    1b6c:	8fd9                	or	a5,a5,a4
    1b6e:	00f681a3          	sb	a5,3(a3)
							break;
    1b72:	b5f1                	j	1a3e <USB_IRQHandler+0x5c>
			len = USBFS->RX_LEN;
    1b74:	00844683          	lbu	a3,8(s0)
    1b78:	0ff6f693          	zext.b	a3,a3
			switch( ep )
    1b7c:	eda1                	bnez	a1,1bd4 <USB_IRQHandler+0x1f2>
					if( intfgst & CRB_UIS_TOG_OK )
    1b7e:	01179713          	slli	a4,a5,0x11
    1b82:	ea075ee3          	bgez	a4,1a3e <USB_IRQHandler+0x5c>
						if ( ctx->USBFS_SetupReqCode != HID_SET_REPORT )
    1b86:	200027b7          	lui	a5,0x20002
    1b8a:	e5c78713          	addi	a4,a5,-420 # 20001e5c <USBFSCTX>
    1b8e:	00074603          	lbu	a2,0(a4)
    1b92:	46a5                	li	a3,9
    1b94:	e5c78793          	addi	a5,a5,-420
    1b98:	02d60463          	beq	a2,a3,1bc0 <USB_IRQHandler+0x1de>
		ctx->USBFS_SetupReqLen = 0; // To ACK
    1b9c:	00079123          	sh	zero,2(a5)
							if ( ( ctx->USBFS_SetupReqType & USB_REQ_TYP_IN ) == 0 )
    1ba0:	00178703          	lb	a4,1(a5)
    1ba4:	00074563          	bltz	a4,1bae <USB_IRQHandler+0x1cc>
								ctx->USBFS_errata_dont_send_endpoint_in_window = 1;
    1ba8:	4705                	li	a4,1
    1baa:	0ee781a3          	sb	a4,227(a5)
							UEP_CTRL_LEN(0) = 0;
    1bae:	400087b7          	lui	a5,0x40008
    1bb2:	02078023          	sb	zero,32(a5) # 40008020 <_eusrstack+0x1ffe8020>
							UEP_CTRL_TX(0) = USBFS_UEP_T_TOG | CHECK_USBFS_UEP_T_AUTO_TOG | USBFS_UEP_T_RES_ACK;
    1bb6:	05000713          	li	a4,80
    1bba:	400087b7          	lui	a5,0x40008
    1bbe:	b7a5                	j	1b26 <USB_IRQHandler+0x144>
						if( ctx->USBFS_SetupReqLen == 0 )
    1bc0:	00275703          	lhu	a4,2(a4)
    1bc4:	df71                	beqz	a4,1ba0 <USB_IRQHandler+0x1be>
							UEP_CTRL_TX(0) ^= USBFS_UEP_R_TOG;
    1bc6:	400087b7          	lui	a5,0x40008
    1bca:	0227c703          	lbu	a4,34(a5) # 40008022 <_eusrstack+0x1ffe8022>
    1bce:	f8074713          	xori	a4,a4,-128
    1bd2:	bf91                	j	1b26 <USB_IRQHandler+0x144>
					UEP_CTRL_TX(ep) ^= USBFS_UEP_R_TOG;
    1bd4:	4611                	li	a2,4
    1bd6:	00259793          	slli	a5,a1,0x2
    1bda:	00b65463          	bge	a2,a1,1be2 <USB_IRQHandler+0x200>
    1bde:	03000713          	li	a4,48
    1be2:	97ba                	add	a5,a5,a4
    1be4:	40008737          	lui	a4,0x40008
    1be8:	02270713          	addi	a4,a4,34 # 40008022 <_eusrstack+0x1ffe8022>
    1bec:	97ba                	add	a5,a5,a4
    1bee:	0007c703          	lbu	a4,0(a5)
					HandleDataOut( ctx, ep, ctx->ENDPOINTS[ep], len );
    1bf2:	20002537          	lui	a0,0x20002
    1bf6:	e5c50613          	addi	a2,a0,-420 # 20001e5c <USBFSCTX>
					UEP_CTRL_TX(ep) ^= USBFS_UEP_R_TOG;
    1bfa:	f8074713          	xori	a4,a4,-128
    1bfe:	00e78023          	sb	a4,0(a5)
					HandleDataOut( ctx, ep, ctx->ENDPOINTS[ep], len );
    1c02:	00659793          	slli	a5,a1,0x6
    1c06:	07c1                	addi	a5,a5,16
    1c08:	963e                	add	a2,a2,a5
    1c0a:	e5c50513          	addi	a0,a0,-420
    1c0e:	1fffe097          	auipc	ra,0x1fffe
    1c12:	49a080e7          	jalr	1178(ra) # 200000a8 <HandleDataOut>
					break;
    1c16:	b525                	j	1a3e <USB_IRQHandler+0x5c>
			if (!(USBFS->INT_ST & 0x80)) goto replycomplete;
    1c18:	00744783          	lbu	a5,7(s0)
    1c1c:	07e2                	slli	a5,a5,0x18
    1c1e:	87e1                	srai	a5,a5,0x18
    1c20:	e007dfe3          	bgez	a5,1a3e <USB_IRQHandler+0x5c>
			UEP_CTRL_TX(0) = USBFS_UEP_T_RES_NAK | USBFS_UEP_T_TOG | USBFS_UEP_R_RES_NAK | USBFS_UEP_R_TOG | CHECK_USBFS_UEP_AUTO_TOG;
    1c24:	400087b7          	lui	a5,0x40008
    1c28:	fda00713          	li	a4,-38
			int USBFS_SetupReqType = USBFSCTX.USBFS_SetupReqType  = pUSBFS_SetupReqPak->bmRequestType;
    1c2c:	20002eb7          	lui	t4,0x20002
			UEP_CTRL_TX(0) = USBFS_UEP_T_RES_NAK | USBFS_UEP_T_TOG | USBFS_UEP_R_RES_NAK | USBFS_UEP_R_TOG | CHECK_USBFS_UEP_AUTO_TOG;
    1c30:	02e78123          	sb	a4,34(a5) # 40008022 <_eusrstack+0x1ffe8022>
			int USBFS_SetupReqType = USBFSCTX.USBFS_SetupReqType  = pUSBFS_SetupReqPak->bmRequestType;
    1c34:	e5ce8793          	addi	a5,t4,-420 # 20001e5c <USBFSCTX>
			int USBFS_SetupReqCode = USBFSCTX.USBFS_SetupReqCode  = pUSBFS_SetupReqPak->bRequest;
    1c38:	0107d703          	lhu	a4,16(a5)
    1c3c:	0127d883          	lhu	a7,18(a5)
			int USBFS_SetupReqLen = USBFSCTX.USBFS_SetupReqLen    = pUSBFS_SetupReqPak->wLength;
    1c40:	0167d803          	lhu	a6,22(a5)
			int USBFS_SetupReqCode = USBFSCTX.USBFS_SetupReqCode  = pUSBFS_SetupReqPak->bRequest;
    1c44:	00871693          	slli	a3,a4,0x8
    1c48:	8321                	srli	a4,a4,0x8
    1c4a:	8f55                	or	a4,a4,a3
    1c4c:	0147d683          	lhu	a3,20(a5)
			int USBFS_SetupReqType = USBFSCTX.USBFS_SetupReqType  = pUSBFS_SetupReqPak->bmRequestType;
    1c50:	0107c503          	lbu	a0,16(a5)
			int USBFS_SetupReqCode = USBFSCTX.USBFS_SetupReqCode  = pUSBFS_SetupReqPak->bRequest;
    1c54:	e4ee9e23          	sh	a4,-420(t4)
    1c58:	01069713          	slli	a4,a3,0x10
    1c5c:	01176733          	or	a4,a4,a7
			int USBFS_SetupReqLen = USBFSCTX.USBFS_SetupReqLen    = pUSBFS_SetupReqPak->wLength;
    1c60:	01079123          	sh	a6,2(a5)
			int USBFS_IndexValue = USBFSCTX.USBFS_IndexValue = ( pUSBFS_SetupReqPak->wIndex << 16 ) | pUSBFS_SetupReqPak->wValue;
    1c64:	c3d8                	sw	a4,4(a5)
    1c66:	06057893          	andi	a7,a0,96
			int USBFS_SetupReqCode = USBFSCTX.USBFS_SetupReqCode  = pUSBFS_SetupReqPak->bRequest;
    1c6a:	0117c303          	lbu	t1,17(a5)
			int USBFS_SetupReqLen = USBFSCTX.USBFS_SetupReqLen    = pUSBFS_SetupReqPak->wLength;
    1c6e:	8642                	mv	a2,a6
			if( ( USBFS_SetupReqType & USB_REQ_TYP_MASK ) != USB_REQ_TYP_STANDARD )
    1c70:	00088c63          	beqz	a7,1c88 <USB_IRQHandler+0x2a6>
				if( ( USBFS_SetupReqType & USB_REQ_TYP_MASK ) == USB_REQ_TYP_CLASS || ( USBFS_SetupReqType & USB_REQ_TYP_MASK ) == USB_REQ_TYP_VENDOR )
    1c74:	1881                	addi	a7,a7,-32
    1c76:	0c08f893          	andi	a7,a7,192
    1c7a:	04089863          	bnez	a7,1cca <USB_IRQHandler+0x2e8>
			UEP_CTRL_TX(0) = USBFS_UEP_T_TOG | USBFS_UEP_T_RES_STALL | USBFS_UEP_R_TOG | USBFS_UEP_R_RES_STALL;
    1c7e:	400087b7          	lui	a5,0x40008
    1c82:	fcf00713          	li	a4,-49
    1c86:	b545                	j	1b26 <USB_IRQHandler+0x144>
				switch( USBFS_SetupReqCode )
    1c88:	48ad                	li	a7,11
    1c8a:	fe68eae3          	bltu	a7,t1,1c7e <USB_IRQHandler+0x29c>
    1c8e:	6e09                	lui	t3,0x2
    1c90:	00231893          	slli	a7,t1,0x2
    1c94:	788e0e13          	addi	t3,t3,1928 # 2788 <string0+0x4>
    1c98:	98f2                	add	a7,a7,t3
    1c9a:	0008a883          	lw	a7,0(a7)
    1c9e:	8882                	jr	a7
						const struct descriptor_list_struct * e = descriptor_list;
    1ca0:	668d                	lui	a3,0x3
						for( ; e != e_end; e++ )
    1ca2:	658d                	lui	a1,0x3
						const struct descriptor_list_struct * e = descriptor_list;
    1ca4:	93468693          	addi	a3,a3,-1740 # 2934 <descriptor_list>
						for( ; e != e_end; e++ )
    1ca8:	97c58593          	addi	a1,a1,-1668 # 297c <__clz_tab>
							if( e->lIndexValue == (uint32_t)USBFS_IndexValue )
    1cac:	0006a883          	lw	a7,0(a3)
    1cb0:	04e89963          	bne	a7,a4,1d02 <USB_IRQHandler+0x320>
								ctx->pCtrlPayloadPtr = (uint8_t*)e->addr;
    1cb4:	42d8                	lw	a4,4(a3)
						ctx->USBFS_SetupReqLen = len;
    1cb6:	e5ce8e93          	addi	t4,t4,-420
								ctx->pCtrlPayloadPtr = (uint8_t*)e->addr;
    1cba:	c7d8                	sw	a4,12(a5)
								len = e->length;
    1cbc:	0086c703          	lbu	a4,8(a3)
						if( len > USBFS_SetupReqLen )
    1cc0:	00e85363          	bge	a6,a4,1cc6 <USB_IRQHandler+0x2e4>
    1cc4:	8742                	mv	a4,a6
						ctx->USBFS_SetupReqLen = len;
    1cc6:	00ee9123          	sh	a4,2(t4)
				if( USBFS_SetupReqType & DEF_UEP_IN )
    1cca:	01851713          	slli	a4,a0,0x18
    1cce:	8761                	srai	a4,a4,0x18
    1cd0:	16075263          	bgez	a4,1e34 <USB_IRQHandler+0x452>
					len = ( USBFS_SetupReqLen > DEF_USBD_UEP0_SIZE )? DEF_USBD_UEP0_SIZE : USBFS_SetupReqLen;
    1cd4:	04000713          	li	a4,64
    1cd8:	00c75463          	bge	a4,a2,1ce0 <USB_IRQHandler+0x2fe>
    1cdc:	04000613          	li	a2,64
					UEP_CTRL_LEN(0) = len;
    1ce0:	40008737          	lui	a4,0x40008
    1ce4:	02c70023          	sb	a2,32(a4) # 40008020 <_eusrstack+0x1ffe8020>
					if (USBFS_SetupReqCode != USB_GET_DESCRIPTOR)
    1ce8:	4719                	li	a4,6
    1cea:	14e30063          	beq	t1,a4,1e2a <USB_IRQHandler+0x448>
						ctx->USBFS_SetupReqLen -= len;
    1cee:	0027d703          	lhu	a4,2(a5) # 40008002 <_eusrstack+0x1ffe8002>
    1cf2:	8f11                	sub	a4,a4,a2
    1cf4:	00e79123          	sh	a4,2(a5)
						UEP_CTRL_TX(0) = USBFS_UEP_T_RES_ACK | USBFS_UEP_T_TOG;
    1cf8:	400087b7          	lui	a5,0x40008
    1cfc:	04000713          	li	a4,64
    1d00:	b51d                	j	1b26 <USB_IRQHandler+0x144>
						for( ; e != e_end; e++ )
    1d02:	06b1                	addi	a3,a3,12
    1d04:	fab694e3          	bne	a3,a1,1cac <USB_IRQHandler+0x2ca>
    1d08:	bf9d                	j	1c7e <USB_IRQHandler+0x29c>
						ctx->USBFS_DevAddr = (uint8_t)( ctx->USBFS_IndexValue & 0xFF );
    1d0a:	00e784a3          	sb	a4,9(a5) # 40008009 <_eusrstack+0x1ffe8009>
						break;
    1d0e:	bf75                	j	1cca <USB_IRQHandler+0x2e8>
						ctrl0buff[0] = ctx->USBFS_DevConfig;
    1d10:	0087c703          	lbu	a4,8(a5)
    1d14:	00e78823          	sb	a4,16(a5)
						if( ctx->USBFS_SetupReqLen > 1 )
    1d18:	4705                	li	a4,1
    1d1a:	fb0778e3          	bgeu	a4,a6,1cca <USB_IRQHandler+0x2e8>
							ctx->USBFS_SetupReqLen = 1;
    1d1e:	00e79123          	sh	a4,2(a5)
    1d22:	b765                	j	1cca <USB_IRQHandler+0x2e8>
						ctx->USBFS_DevConfig = (uint8_t)( ctx->USBFS_IndexValue & 0xFF );
    1d24:	00e78423          	sb	a4,8(a5)
						ctx->USBFS_DevEnumStatus = 0x01;
    1d28:	4705                	li	a4,1
    1d2a:	00e785a3          	sb	a4,11(a5)
							UEP_CTRL_TX(ep) &= ~USBFS_UEP_T_TOG;
    1d2e:	40008737          	lui	a4,0x40008
    1d32:	02674683          	lbu	a3,38(a4) # 40008026 <_eusrstack+0x1ffe8026>
    1d36:	03f6f693          	andi	a3,a3,63
    1d3a:	02d70323          	sb	a3,38(a4)
    1d3e:	40008737          	lui	a4,0x40008
    1d42:	02a74683          	lbu	a3,42(a4) # 4000802a <_eusrstack+0x1ffe802a>
    1d46:	03f6f693          	andi	a3,a3,63
    1d4a:	02d70523          	sb	a3,42(a4)
						for(int ep = 1; ep < FUSB_CONFIG_EPS; ep++) {
    1d4e:	bfb5                	j	1cca <USB_IRQHandler+0x2e8>
						if( ( USBFS_SetupReqType & USB_REQ_RECIP_MASK ) == USB_REQ_RECIP_ENDP )
    1d50:	01f57813          	andi	a6,a0,31
    1d54:	4889                	li	a7,2
    1d56:	f31814e3          	bne	a6,a7,1c7e <USB_IRQHandler+0x29c>
							if( (uint8_t)( USBFS_IndexValue & 0xFF ) == USB_REQ_FEAT_ENDP_HALT )
    1d5a:	0ff77713          	zext.b	a4,a4
    1d5e:	f305                	bnez	a4,1c7e <USB_IRQHandler+0x29c>
								if( ep < FUSB_CONFIG_EPS ) 
    1d60:	f0b84fe3          	blt	a6,a1,1c7e <USB_IRQHandler+0x29c>
									if( USBFS_SetupReqIndex & DEF_UEP_IN  && ctx->endpoint_mode[ep] == -1 ) UEP_CTRL_TX(ep) = USBFS_UEP_T_RES_NAK;
    1d64:	0806f693          	andi	a3,a3,128
    1d68:	da99                	beqz	a3,1c7e <USB_IRQHandler+0x29c>
    1d6a:	03458713          	addi	a4,a1,52
    1d6e:	070a                	slli	a4,a4,0x2
    1d70:	973e                	add	a4,a4,a5
    1d72:	4314                	lw	a3,0(a4)
    1d74:	577d                	li	a4,-1
    1d76:	f0e694e3          	bne	a3,a4,1c7e <USB_IRQHandler+0x29c>
    1d7a:	058a                	slli	a1,a1,0x2
    1d7c:	40008737          	lui	a4,0x40008
    1d80:	95ba                	add	a1,a1,a4
    1d82:	03058123          	sb	a6,34(a1)
						break;
    1d86:	b791                	j	1cca <USB_IRQHandler+0x2e8>
						else if( ( USBFS_SetupReqType & USB_REQ_RECIP_MASK ) == USB_REQ_RECIP_ENDP )
    1d88:	01f57813          	andi	a6,a0,31
    1d8c:	4889                	li	a7,2
    1d8e:	ef1818e3          	bne	a6,a7,1c7e <USB_IRQHandler+0x29c>
							if( (uint8_t)( USBFS_IndexValue & 0xFF ) == USB_REQ_FEAT_ENDP_HALT )
    1d92:	0ff77713          	zext.b	a4,a4
    1d96:	ee0714e3          	bnez	a4,1c7e <USB_IRQHandler+0x29c>
								if( ep < FUSB_CONFIG_EPS )
    1d9a:	f2b848e3          	blt	a6,a1,1cca <USB_IRQHandler+0x2e8>
									if( (USBFS_SetupReqIndex & DEF_UEP_IN) && ctx->endpoint_mode[ep] == -1 )UEP_CTRL_TX(ep) = ( UEP_CTRL_TX(ep) & ~USBFS_UEP_T_RES_MASK ) | USBFS_UEP_T_RES_STALL;
    1d9e:	0806f693          	andi	a3,a3,128
    1da2:	ec068ee3          	beqz	a3,1c7e <USB_IRQHandler+0x29c>
    1da6:	03458713          	addi	a4,a1,52
    1daa:	070a                	slli	a4,a4,0x2
    1dac:	973e                	add	a4,a4,a5
    1dae:	4314                	lw	a3,0(a4)
    1db0:	577d                	li	a4,-1
    1db2:	ece696e3          	bne	a3,a4,1c7e <USB_IRQHandler+0x29c>
    1db6:	40008737          	lui	a4,0x40008
    1dba:	02270713          	addi	a4,a4,34 # 40008022 <_eusrstack+0x1ffe8022>
    1dbe:	058a                	slli	a1,a1,0x2
    1dc0:	95ba                	add	a1,a1,a4
    1dc2:	0005c703          	lbu	a4,0(a1)
    1dc6:	00376713          	ori	a4,a4,3
    1dca:	00e58023          	sb	a4,0(a1)
    1dce:	bdf5                	j	1cca <USB_IRQHandler+0x2e8>
						ctrl0buff[0] = 0x00;
    1dd0:	00078823          	sb	zero,16(a5)
						if( USBFS_SetupReqLen > 1 ) USBFS_SetupReqLen = 1;
    1dd4:	ef005be3          	blez	a6,1cca <USB_IRQHandler+0x2e8>
    1dd8:	4605                	li	a2,1
    1dda:	bdc5                	j	1cca <USB_IRQHandler+0x2e8>
						ctrl0buff[0] = 0x00;
    1ddc:	00079823          	sh	zero,16(a5)
						if( ( USBFS_SetupReqType & USB_REQ_RECIP_MASK ) == USB_REQ_RECIP_DEVICE )
    1de0:	01f57713          	andi	a4,a0,31
    1de4:	cf15                	beqz	a4,1e20 <USB_IRQHandler+0x43e>
						else if( ( USBFS_SetupReqType & USB_REQ_RECIP_MASK ) == USB_REQ_RECIP_ENDP )
    1de6:	4889                	li	a7,2
    1de8:	e9171be3          	bne	a4,a7,1c7e <USB_IRQHandler+0x29c>
							if( ep < FUSB_CONFIG_EPS )
    1dec:	e8b749e3          	blt	a4,a1,1c7e <USB_IRQHandler+0x29c>
								if( USBFS_SetupReqIndex & DEF_UEP_IN && ctx->endpoint_mode[ep] == -1 ) ctrl0buff[0] = ( UEP_CTRL_TX(ep) & USBFS_UEP_T_RES_MASK ) == USBFS_UEP_T_RES_STALL;
    1df0:	0806f693          	andi	a3,a3,128
    1df4:	e80685e3          	beqz	a3,1c7e <USB_IRQHandler+0x29c>
    1df8:	03458713          	addi	a4,a1,52
    1dfc:	070a                	slli	a4,a4,0x2
    1dfe:	973e                	add	a4,a4,a5
    1e00:	4314                	lw	a3,0(a4)
    1e02:	577d                	li	a4,-1
    1e04:	e6e69de3          	bne	a3,a4,1c7e <USB_IRQHandler+0x29c>
    1e08:	058a                	slli	a1,a1,0x2
    1e0a:	40008737          	lui	a4,0x40008
    1e0e:	972e                	add	a4,a4,a1
    1e10:	02274683          	lbu	a3,34(a4) # 40008022 <_eusrstack+0x1ffe8022>
    1e14:	8a8d                	andi	a3,a3,3
    1e16:	16f5                	addi	a3,a3,-3
    1e18:	0016b693          	seqz	a3,a3
    1e1c:	00d78823          	sb	a3,16(a5)
						if( USBFS_SetupReqLen > 2 )
    1e20:	4709                	li	a4,2
    1e22:	eb0754e3          	bge	a4,a6,1cca <USB_IRQHandler+0x2e8>
    1e26:	4609                	li	a2,2
    1e28:	b54d                	j	1cca <USB_IRQHandler+0x2e8>
						UEP_CTRL_TX(0) = USBFS_UEP_T_RES_ACK;
    1e2a:	400087b7          	lui	a5,0x40008
    1e2e:	02078123          	sb	zero,34(a5) # 40008022 <_eusrstack+0x1ffe8022>
    1e32:	b131                	j	1a3e <USB_IRQHandler+0x5c>
					if( USBFS_SetupReqLen == 0 )
    1e34:	400087b7          	lui	a5,0x40008
    1e38:	02278793          	addi	a5,a5,34 # 40008022 <_eusrstack+0x1ffe8022>
						UEP_CTRL_TX(0) = CHECK_USBFS_UEP_T_AUTO_TOG | USBFS_UEP_R_RES_ACK | USBFS_UEP_R_TOG;
    1e3c:	f9000713          	li	a4,-112
					if( USBFS_SetupReqLen == 0 )
    1e40:	e619                	bnez	a2,1e4e <USB_IRQHandler+0x46c>
						UEP_CTRL_LEN(0) = 0;
    1e42:	40008737          	lui	a4,0x40008
    1e46:	02070023          	sb	zero,32(a4) # 40008020 <_eusrstack+0x1ffe8020>
						UEP_CTRL_TX(0) = USBFS_UEP_T_RES_ACK | USBFS_UEP_T_TOG;
    1e4a:	04000713          	li	a4,64
						UEP_CTRL_TX(0) = CHECK_USBFS_UEP_T_AUTO_TOG | USBFS_UEP_R_RES_ACK | USBFS_UEP_R_TOG;
    1e4e:	00e78023          	sb	a4,0(a5)
    1e52:	b6f5                	j	1a3e <USB_IRQHandler+0x5c>
	else if( intfgst & CRB_UIF_BUS_RST )
    1e54:	0017f713          	andi	a4,a5,1
    1e58:	cf09                	beqz	a4,1e72 <USB_IRQHandler+0x490>
		ctx->USBFS_DevConfig = 0;
    1e5a:	200027b7          	lui	a5,0x20002
    1e5e:	e607a223          	sw	zero,-412(a5) # 20001e64 <USBFSCTX+0x8>
		USBFS->DEV_ADDR = 0;
    1e62:	000401a3          	sb	zero,3(s0)
		USBFS_InternalFinishSetup();
    1e66:	d54ff0ef          	jal	13ba <USBFS_InternalFinishSetup>
		USBFS->INT_FG = CRB_UIF_BUS_RST;
    1e6a:	4785                	li	a5,1
			USBFS->INT_FG = intfgst & 0xff;
    1e6c:	00f40323          	sb	a5,6(s0)
}
    1e70:	bee1                	j	1a48 <USB_IRQHandler+0x66>
	else if( intfgst & CRB_UIF_SUSPEND )
    1e72:	0047f713          	andi	a4,a5,4
			USBFS->INT_FG = intfgst & 0xff;
    1e76:	0ff7f793          	zext.b	a5,a5
	else if( intfgst & CRB_UIF_SUSPEND )
    1e7a:	db6d                	beqz	a4,1e6c <USB_IRQHandler+0x48a>
		USBFS->INT_FG = USBFS_UMS_SUSPEND;
    1e7c:	4791                	li	a5,4
    1e7e:	00f40323          	sb	a5,6(s0)
		Delay_Us(10);
    1e82:	26c00513          	li	a0,620
    1e86:	d1eff0ef          	jal	13a4 <DelaySysTick>
		if( USBFS->MIS_ST & USBFS_UMS_SUSPEND )
    1e8a:	00544683          	lbu	a3,5(s0)
			ctx->USBFS_DevSleepStatus |= 0x02;
    1e8e:	20002737          	lui	a4,0x20002
    1e92:	e5c70713          	addi	a4,a4,-420 # 20001e5c <USBFSCTX>
		if( USBFS->MIS_ST & USBFS_UMS_SUSPEND )
    1e96:	8a91                	andi	a3,a3,4
			ctx->USBFS_DevSleepStatus |= 0x02;
    1e98:	00a74783          	lbu	a5,10(a4)
		if( USBFS->MIS_ST & USBFS_UMS_SUSPEND )
    1e9c:	c691                	beqz	a3,1ea8 <USB_IRQHandler+0x4c6>
			ctx->USBFS_DevSleepStatus |= 0x02;
    1e9e:	0027e793          	ori	a5,a5,2
			ctx->USBFS_DevSleepStatus &= ~0x02;
    1ea2:	00f70523          	sb	a5,10(a4)
    1ea6:	b64d                	j	1a48 <USB_IRQHandler+0x66>
    1ea8:	9bf5                	andi	a5,a5,-3
    1eaa:	bfe5                	j	1ea2 <USB_IRQHandler+0x4c0>

00001eac <memset>:
    1eac:	962a                	add	a2,a2,a0
    1eae:	87aa                	mv	a5,a0
    1eb0:	00c79363          	bne	a5,a2,1eb6 <memset+0xa>
    1eb4:	8082                	ret
    1eb6:	00b78023          	sb	a1,0(a5)
    1eba:	0785                	addi	a5,a5,1
    1ebc:	bfd5                	j	1eb0 <memset+0x4>

00001ebe <memcpy>:
    1ebe:	4781                	li	a5,0
    1ec0:	00f61363          	bne	a2,a5,1ec6 <memcpy+0x8>
    1ec4:	8082                	ret
    1ec6:	00f58733          	add	a4,a1,a5
    1eca:	00074683          	lbu	a3,0(a4)
    1ece:	00f50733          	add	a4,a0,a5
    1ed2:	0785                	addi	a5,a5,1
    1ed4:	00d70023          	sb	a3,0(a4)
    1ed8:	b7e5                	j	1ec0 <memcpy+0x2>

00001eda <jump_isprom>:
#define LL_TX_POWER_7_DBM           0x3B


RV_STATIC_INLINE void jump_isprom()
{
	memcpy((void*)ISPROM_IN_RAM_ADDRESS, (void*)(ISPROM_ADDRESS + ISPROM_START_OFFSET), ISPROM_SIZE); // copy bootloader to ram
    1eda:	6609                	lui	a2,0x2
    1edc:	000785b7          	lui	a1,0x78
{
    1ee0:	1141                	addi	sp,sp,-16
	memcpy((void*)ISPROM_IN_RAM_ADDRESS, (void*)(ISPROM_ADDRESS + ISPROM_START_OFFSET), ISPROM_SIZE); // copy bootloader to ram
    1ee2:	50060613          	addi	a2,a2,1280 # 2500 <__udivdi3+0x106>
    1ee6:	08858593          	addi	a1,a1,136 # 78088 <ch585_grand_finale.c.9f3d4ca2+0x745f7>
    1eea:	20000537          	lui	a0,0x20000
{
    1eee:	c606                	sw	ra,12(sp)
	memcpy((void*)ISPROM_IN_RAM_ADDRESS, (void*)(ISPROM_ADDRESS + ISPROM_START_OFFSET), ISPROM_SIZE); // copy bootloader to ram
    1ef0:	37f9                	jal	1ebe <memcpy>
#ifdef CH570_CH572	
	*(int32_t*)(ISPROM_BOOTBUTTON_CHECK_ADDRESS + 0xc) = 0x00014505; // nop \n li a0,1, patch PA1 detection
#elif defined(CH582_CH583)
	*(int16_t*)(ISPROM_BOOTBUTTON_CHECK_ADDRESS + 0xe) = 0x4505; // li a0, 1, patch PB22 detection to always return true
#elif (defined(CH584_CH585) || defined(CH591_CH592))
	*(int16_t*)(ISPROM_BOOTBUTTON_CHECK_ADDRESS + 0xa) = 0x4505; // li a0,1, patch PB11 (option byte is not read correctly) detection
    1ef2:	6711                	lui	a4,0x4
    1ef4:	200007b7          	lui	a5,0x20000
    1ef8:	50570713          	addi	a4,a4,1285 # 4505 <ch585_grand_finale.c.9f3d4ca2+0xa74>
#endif
	
#if (defined(CH570_CH572) || defined(CH584_CH585) || defined(CH591_CH592))
	memset((void*)ISPROM_BSS_ADDRESS, 0, ISPROM_BSS_SIZE); // clear .bss
    1efc:	20002537          	lui	a0,0x20002
	*(int16_t*)(ISPROM_BOOTBUTTON_CHECK_ADDRESS + 0xa) = 0x4505; // li a0,1, patch PB11 (option byte is not read correctly) detection
    1f00:	10e79a23          	sh	a4,276(a5) # 20000114 <HandleDataOut+0x6c>
	memset((void*)ISPROM_BSS_ADDRESS, 0, ISPROM_BSS_SIZE); // clear .bss
    1f04:	56000613          	li	a2,1376
    1f08:	4581                	li	a1,0
    1f0a:	4f050513          	addi	a0,a0,1264 # 200024f0 <_ebss+0x5b0>
    1f0e:	3f79                	jal	1eac <memset>

	asm( "la gp, " ISPROM_IN_RAM_GLOBALPOINTER "\n"
    1f10:	200031b7          	lui	gp,0x20003
    1f14:	ce818193          	addi	gp,gp,-792 # 20002ce8 <_ebss+0xda8>
    1f18:	200022b7          	lui	t0,0x20002
    1f1c:	8c228293          	addi	t0,t0,-1854 # 200018c2 <g_nfca_parity_buf+0x66>
    1f20:	34129073          	csrw	mepc,t0
    1f24:	30200073          	mret
		 "mret\n");
#elif defined(CH582_CH583)
	asm( "la gp, " ISPROM_GLOBALPOINTER "\n"
		 "j " ISPROM_ENTRYPOINT "\n");
#endif
}
    1f28:	40b2                	lw	ra,12(sp)
    1f2a:	0141                	addi	sp,sp,16
    1f2c:	8082                	ret

00001f2e <USBFS_SendEndpointNEW.constprop.0.isra.0>:
	USBFSCTX.USBFS_Endp_Busy[ endp ] = 1;
	NVIC_EnableIRQ( USB_IRQn );
	return 0;
}

int USBFS_SendEndpointNEW( int endp, uint8_t* data, int len, int copy)
    1f2e:	1141                	addi	sp,sp,-16
    1f30:	c422                	sw	s0,8(sp)
{
	if( USBFSCTX.USBFS_errata_dont_send_endpoint_in_window || USBFSCTX.USBFS_Endp_Busy[ endp ] ) return -1;
    1f32:	20002437          	lui	s0,0x20002
int USBFS_SendEndpointNEW( int endp, uint8_t* data, int len, int copy)
    1f36:	c606                	sw	ra,12(sp)
    1f38:	c226                	sw	s1,4(sp)
	if( USBFSCTX.USBFS_errata_dont_send_endpoint_in_window || USBFSCTX.USBFS_Endp_Busy[ endp ] ) return -1;
    1f3a:	e5c40413          	addi	s0,s0,-420 # 20001e5c <USBFSCTX>
    1f3e:	0e344783          	lbu	a5,227(s0)
    1f42:	ebb9                	bnez	a5,1f98 <USBFS_SendEndpointNEW.constprop.0.isra.0+0x6a>
    1f44:	0e144783          	lbu	a5,225(s0)
    1f48:	eba1                	bnez	a5,1f98 <USBFS_SendEndpointNEW.constprop.0.isra.0+0x6a>
	// This prevents sending while ep0 is receiving
	if( USBFSCTX.USBFS_SetupReqLen > 0 ) return USBFSCTX.USBFS_SetupReqLen;
    1f4a:	00245783          	lhu	a5,2(s0)
    1f4e:	e7a9                	bnez	a5,1f98 <USBFS_SendEndpointNEW.constprop.0.isra.0+0x6a>
#if defined (CH5xx) || defined (CH32X03x)
	// Check RB_UIS_SETUP_ACT
	if( (USBFS->INT_ST & 0x80) ) return -3;
    1f50:	400087b7          	lui	a5,0x40008
    1f54:	0077c783          	lbu	a5,7(a5) # 40008007 <_eusrstack+0x1ffe8007>
    1f58:	07e2                	slli	a5,a5,0x18
    1f5a:	87e1                	srai	a5,a5,0x18
    1f5c:	0207ce63          	bltz	a5,1f98 <USBFS_SendEndpointNEW.constprop.0.isra.0+0x6a>
	if ( len )
	{
		if( copy )
		{
#if defined(CH5xx) || defined(CH32X03x)
			if ( endp != 4 ) UEP_DMA( endp ) = (uintptr_t)USBFSCTX.ENDPOINTS[endp];
    1f60:	20002737          	lui	a4,0x20002
    1f64:	400087b7          	lui	a5,0x40008
    1f68:	eac70693          	addi	a3,a4,-340 # 20001eac <USBFSCTX+0x50>
    1f6c:	84ae                	mv	s1,a1
    1f6e:	00d79a23          	sh	a3,20(a5) # 40008014 <_eusrstack+0x1ffe8014>
#else
			UEP_DMA( endp ) = (uintptr_t)USBFSCTX.ENDPOINTS[endp];
#endif
			copyBuffer( USBFSCTX.ENDPOINTS[endp], data, len );
    1f72:	862e                	mv	a2,a1
    1f74:	85aa                	mv	a1,a0
    1f76:	eac70513          	addi	a0,a4,-340
    1f7a:	3791                	jal	1ebe <memcpy>
			UEP_DMA( endp ) = (uintptr_t)data;
#endif
		}
	}
	// NVIC_DisableIRQ( USB_IRQn );
	UEP_CTRL_LEN( endp ) = len;
    1f7c:	400087b7          	lui	a5,0x40008
    1f80:	02978223          	sb	s1,36(a5) # 40008024 <_eusrstack+0x1ffe8024>
	UEP_CTRL_TX( endp ) = ( UEP_CTRL_TX( endp ) & ~USBFS_UEP_T_RES_MASK ) | USBFS_UEP_T_RES_ACK;
    1f84:	400087b7          	lui	a5,0x40008
    1f88:	0267c703          	lbu	a4,38(a5) # 40008026 <_eusrstack+0x1ffe8026>
    1f8c:	9b71                	andi	a4,a4,-4
    1f8e:	02e78323          	sb	a4,38(a5)
	USBFSCTX.USBFS_Endp_Busy[ endp ] = 1;
    1f92:	4785                	li	a5,1
    1f94:	0ef400a3          	sb	a5,225(s0)
	// NVIC_EnableIRQ( USB_IRQn );
	return 0;
}
    1f98:	40b2                	lw	ra,12(sp)
    1f9a:	4422                	lw	s0,8(sp)
    1f9c:	4492                	lw	s1,4(sp)
    1f9e:	0141                	addi	sp,sp,16
    1fa0:	8082                	ret

00001fa2 <SystemInit>:
    1fa2:	400017b7          	lui	a5,0x40001
    1fa6:	04078793          	addi	a5,a5,64 # 40001040 <_eusrstack+0x1ffe1040>
    1faa:	05700593          	li	a1,87
    1fae:	00b78023          	sb	a1,0(a5)
    1fb2:	fa800613          	li	a2,-88
    1fb6:	00c78023          	sb	a2,0(a5)
    1fba:	0001                	nop
    1fbc:	0001                	nop
    1fbe:	40002737          	lui	a4,0x40002
    1fc2:	80574683          	lbu	a3,-2043(a4) # 40001805 <_eusrstack+0x1ffe1805>
    1fc6:	0ef6f693          	andi	a3,a3,239
    1fca:	80d702a3          	sb	a3,-2043(a4)
    1fce:	40002737          	lui	a4,0x40002
    1fd2:	4685                	li	a3,1
    1fd4:	80d703a3          	sb	a3,-2041(a4) # 40001807 <_eusrstack+0x1ffe1807>
    1fd8:	00078023          	sb	zero,0(a5)
    1fdc:	0001                	nop
    1fde:	0001                	nop
    1fe0:	00b78023          	sb	a1,0(a5)
    1fe4:	00c78023          	sb	a2,0(a5)
    1fe8:	0001                	nop
    1fea:	0001                	nop
    1fec:	40001737          	lui	a4,0x40001
    1ff0:	34500693          	li	a3,837
    1ff4:	00d71423          	sh	a3,8(a4) # 40001008 <_eusrstack+0x1ffe1008>
    1ff8:	00078023          	sb	zero,0(a5)
    1ffc:	0001                	nop
    1ffe:	0001                	nop
    2000:	8082                	ret

00002002 <GPIOB_IRQHandler>:
void GPIOB_IRQHandler() {
    2002:	7139                	addi	sp,sp,-64
    2004:	ce3a                	sw	a4,28(sp)
	int status = R16_PB_INT_IF;
    2006:	40001737          	lui	a4,0x40001
void GPIOB_IRQHandler() {
    200a:	cc3e                	sw	a5,24(sp)
	int status = R16_PB_INT_IF;
    200c:	09e75783          	lhu	a5,158(a4) # 4000109e <_eusrstack+0x1ffe109e>
void GPIOB_IRQHandler() {
    2010:	de06                	sw	ra,60(sp)
    2012:	dc16                	sw	t0,56(sp)
	int status = R16_PB_INT_IF;
    2014:	07c2                	slli	a5,a5,0x10
    2016:	83c1                	srli	a5,a5,0x10
void GPIOB_IRQHandler() {
    2018:	da1a                	sw	t1,52(sp)
    201a:	d81e                	sw	t2,48(sp)
    201c:	d62a                	sw	a0,44(sp)
    201e:	d42e                	sw	a1,40(sp)
    2020:	d232                	sw	a2,36(sp)
    2022:	d036                	sw	a3,32(sp)
    2024:	ca42                	sw	a6,20(sp)
    2026:	c846                	sw	a7,16(sp)
    2028:	c672                	sw	t3,12(sp)
    202a:	c476                	sw	t4,8(sp)
    202c:	c27a                	sw	t5,4(sp)
    202e:	c07e                	sw	t6,0(sp)
	R16_PB_INT_IF = status; // acknowledge
    2030:	08f71f23          	sh	a5,158(a4)
	if(status & PB8) { // PB22 interrupt comes in on PB8 if RB_PIN_INTX is set
    2034:	1007f793          	andi	a5,a5,256
    2038:	c395                	beqz	a5,205c <GPIOB_IRQHandler+0x5a>
		if( funDigitalRead(PB22) ) return;
    203a:	400017b7          	lui	a5,0x40001
    203e:	0c478793          	addi	a5,a5,196 # 400010c4 <_eusrstack+0x1ffe10c4>
    2042:	439c                	lw	a5,0(a5)
    2044:	00979713          	slli	a4,a5,0x9
    2048:	00074a63          	bltz	a4,205c <GPIOB_IRQHandler+0x5a>
		USBFSReset();
    204c:	bf0ff0ef          	jal	143c <USBFSReset>
		blink(2);
    2050:	4509                	li	a0,2
    2052:	1fffe097          	auipc	ra,0x1fffe
    2056:	fae080e7          	jalr	-82(ra) # 20000000 <blink>
		jump_isprom();
    205a:	3541                	jal	1eda <jump_isprom>
}
    205c:	50f2                	lw	ra,60(sp)
    205e:	52e2                	lw	t0,56(sp)
    2060:	5352                	lw	t1,52(sp)
    2062:	53c2                	lw	t2,48(sp)
    2064:	5532                	lw	a0,44(sp)
    2066:	55a2                	lw	a1,40(sp)
    2068:	5612                	lw	a2,36(sp)
    206a:	5682                	lw	a3,32(sp)
    206c:	4772                	lw	a4,28(sp)
    206e:	47e2                	lw	a5,24(sp)
    2070:	4852                	lw	a6,20(sp)
    2072:	48c2                	lw	a7,16(sp)
    2074:	4e32                	lw	t3,12(sp)
    2076:	4ea2                	lw	t4,8(sp)
    2078:	4f12                	lw	t5,4(sp)
    207a:	4f82                	lw	t6,0(sp)
    207c:	6121                	addi	sp,sp,64
    207e:	30200073          	mret

00002082 <main>:
			next_scan_time = now + Ticks_from_Ms(333);
		}
	}
}

int main() {
    2082:	1101                	addi	sp,sp,-32
    2084:	ce06                	sw	ra,28(sp)
    2086:	cc22                	sw	s0,24(sp)
    2088:	ca26                	sw	s1,20(sp)
    208a:	c84a                	sw	s2,16(sp)
    208c:	c64e                	sw	s3,12(sp)
    208e:	c452                	sw	s4,8(sp)
	SystemInit();
    2090:	3f09                	jal	1fa2 <SystemInit>
		*(&R32_PA_PD_DRV + OFFSET_FOR_GPIOB(pin)) &= ~(pin & ~PB);
    2092:	40001737          	lui	a4,0x40001
    2096:	0d470713          	addi	a4,a4,212 # 400010d4 <_eusrstack+0x1ffe10d4>
    209a:	431c                	lw	a5,0(a4)
	funDigitalWrite( LED, LED_OFF );
    209c:	4621                	li	a2,8
    209e:	9bdd                	andi	a5,a5,-9
    20a0:	c31c                	sw	a5,0(a4)
		*(&R32_PA_DIR + OFFSET_FOR_GPIOB(pin))    |= (pin & ~PB);
    20a2:	400017b7          	lui	a5,0x40001
    20a6:	0c078793          	addi	a5,a5,192 # 400010c0 <_eusrstack+0x1ffe10c0>
    20aa:	4394                	lw	a3,0(a5)
    20ac:	0086e693          	ori	a3,a3,8
    20b0:	c394                	sw	a3,0(a5)
    20b2:	400016b7          	lui	a3,0x40001
    20b6:	0d868693          	addi	a3,a3,216 # 400010d8 <_eusrstack+0x1ffe10d8>
    20ba:	c290                	sw	a2,0(a3)
		*(&R32_PA_PD_DRV + OFFSET_FOR_GPIOB(pin)) |= (pin & ~PB);
    20bc:	4314                	lw	a3,0(a4)
    20be:	0406e693          	ori	a3,a3,64
    20c2:	c314                	sw	a3,0(a4)
		*(&R32_PA_DIR + OFFSET_FOR_GPIOB(pin))    |= (pin & ~PB);
    20c4:	4394                	lw	a3,0(a5)
    20c6:	0406e693          	ori	a3,a3,64
    20ca:	c394                	sw	a3,0(a5)
		*(&R32_PA_PD_DRV + OFFSET_FOR_GPIOB(pin)) |= (pin & ~PB);
    20cc:	4314                	lw	a3,0(a4)
    20ce:	0016e693          	ori	a3,a3,1
    20d2:	c314                	sw	a3,0(a4)
		*(&R32_PA_DIR + OFFSET_FOR_GPIOB(pin))    |= (pin & ~PB);
    20d4:	4398                	lw	a4,0(a5)
    20d6:	00176713          	ori	a4,a4,1
    20da:	c398                	sw	a4,0(a5)
	GPIO_ResetBits( STATUS_SK6812_PIN );
    20dc:	400017b7          	lui	a5,0x40001
    20e0:	0cc78793          	addi	a5,a5,204 # 400010cc <_eusrstack+0x1ffe10cc>
    20e4:	04000713          	li	a4,64
    20e8:	c398                	sw	a4,0(a5)
	if (g_audio_pwm_initialized) return;
    20ea:	c101c783          	lbu	a5,-1008(gp) # 20001310 <g_audio_pwm_initialized>
    20ee:	e399                	bnez	a5,20f4 <main+0x72>
    20f0:	fbcff0ef          	jal	18ac <audio_init.part.0>
	sk6812_set_grbw(0, 0, 0, 0);
    20f4:	4601                	li	a2,0
    20f6:	4581                	li	a1,0
    20f8:	4501                	li	a0,0
    20fa:	f4eff0ef          	jal	1848 <sk6812_set_grbw.constprop.0>
	SYS_SAFE_ACCESS(
    20fe:	40001737          	lui	a4,0x40001
    2102:	04070713          	addi	a4,a4,64 # 40001040 <_eusrstack+0x1ffe1040>
    2106:	05700793          	li	a5,87
    210a:	00f70023          	sb	a5,0(a4)
    210e:	fa800793          	li	a5,-88
    2112:	00f70023          	sb	a5,0(a4)
    2116:	0001                	nop
    2118:	0001                	nop
    211a:	400017b7          	lui	a5,0x40001
    211e:	00e7c683          	lbu	a3,14(a5) # 4000100e <_eusrstack+0x1ffe100e>
    2122:	0506e693          	ori	a3,a3,80
    2126:	00d78723          	sb	a3,14(a5)
    212a:	400017b7          	lui	a5,0x40001
    212e:	00f7c683          	lbu	a3,15(a5) # 4000100f <_eusrstack+0x1ffe100f>
    2132:	0fc6f693          	andi	a3,a3,252
    2136:	00d787a3          	sb	a3,15(a5)
    213a:	00f7c683          	lbu	a3,15(a5)
    213e:	0ff6f693          	zext.b	a3,a3
    2142:	00d787a3          	sb	a3,15(a5)
    2146:	00070023          	sb	zero,0(a4)
    214a:	0001                	nop
    214c:	0001                	nop

	// Quick sanity wiggle: regardless of LED polarity, you should see *something*
	// if the LED is wired correctly and the firmware is running.
	for( int i = 0; i < 2; i++ )
	{
		funDigitalWrite( LED, FUN_LOW );
    214e:	44a1                	li	s1,8
    2150:	40001937          	lui	s2,0x40001
		Delay_Ms(150);
    2154:	008ed537          	lui	a0,0x8ed
		funDigitalWrite( LED, FUN_LOW );
    2158:	0c992623          	sw	s1,204(s2) # 400010cc <_eusrstack+0x1ffe10cc>
		Delay_Ms(150);
    215c:	28050513          	addi	a0,a0,640 # 8ed280 <ch585_grand_finale.c.9f3d4ca2+0x8e97ef>
    2160:	a44ff0ef          	jal	13a4 <DelaySysTick>
		funDigitalWrite( LED, FUN_HIGH );
    2164:	40001437          	lui	s0,0x40001
    2168:	0d840413          	addi	s0,s0,216 # 400010d8 <_eusrstack+0x1ffe10d8>
		Delay_Ms(150);
    216c:	008ed537          	lui	a0,0x8ed
		funDigitalWrite( LED, FUN_HIGH );
    2170:	c004                	sw	s1,0(s0)
		Delay_Ms(150);
    2172:	28050513          	addi	a0,a0,640 # 8ed280 <ch585_grand_finale.c.9f3d4ca2+0x8e97ef>
    2176:	a2eff0ef          	jal	13a4 <DelaySysTick>
		Delay_Ms(150);
    217a:	008ed537          	lui	a0,0x8ed
		funDigitalWrite( LED, FUN_LOW );
    217e:	0c992623          	sw	s1,204(s2)
		Delay_Ms(150);
    2182:	28050513          	addi	a0,a0,640 # 8ed280 <ch585_grand_finale.c.9f3d4ca2+0x8e97ef>
    2186:	a1eff0ef          	jal	13a4 <DelaySysTick>
		Delay_Ms(150);
    218a:	008ed537          	lui	a0,0x8ed
		funDigitalWrite( LED, FUN_HIGH );
    218e:	c004                	sw	s1,0(s0)
		Delay_Ms(150);
    2190:	28050513          	addi	a0,a0,640 # 8ed280 <ch585_grand_finale.c.9f3d4ca2+0x8e97ef>
    2194:	a10ff0ef          	jal	13a4 <DelaySysTick>
	}
	funDigitalWrite( LED, LED_OFF );

	// If firmware is running at all, show a visible "I'm alive" indicator even if USB never enumerates.
#if !SK6812_DISABLE
	sk6812_set_rgb(SK6812_BRIGHT, 0, 0); // red
    2198:	4601                	li	a2,0
    219a:	4581                	li	a1,0
	funDigitalWrite( LED, LED_OFF );
    219c:	c004                	sw	s1,0(s0)
	sk6812_set_rgb(SK6812_BRIGHT, 0, 0); // red
    219e:	02000513          	li	a0,32
    21a2:	f02ff0ef          	jal	18a4 <sk6812_set_rgb>
  R16_PIN_CONFIG |= RB_PIN_USB_EN | RB_UDP_PU_EN;
    21a6:	400014b7          	lui	s1,0x40001
    21aa:	01a4d783          	lhu	a5,26(s1) # 4000101a <_eusrstack+0x1ffe101a>
	USBFS->BASE_CTRL = USBFS_UC_RESET_SIE | USBFS_UC_CLR_ALL;
    21ae:	40008437          	lui	s0,0x40008
	Delay_Us(10);
    21b2:	26c00513          	li	a0,620
  R16_PIN_CONFIG |= RB_PIN_USB_EN | RB_UDP_PU_EN;
    21b6:	0c07e793          	ori	a5,a5,192
    21ba:	00f49d23          	sh	a5,26(s1)
	USBFS->BASE_CTRL = USBFS_UC_RESET_SIE | USBFS_UC_CLR_ALL;
    21be:	4799                	li	a5,6
    21c0:	00f40023          	sb	a5,0(s0) # 40008000 <_eusrstack+0x1ffe8000>
	USBFS->BASE_CTRL = 0x00;
    21c4:	00040023          	sb	zero,0(s0)
	Delay_Us(10);
    21c8:	9dcff0ef          	jal	13a4 <DelaySysTick>
	USBFS->INT_EN    = USBFS_UIE_SUSPEND | USBFS_UIE_TRANSFER | USBFS_UIE_BUS_RST;
    21cc:	479d                	li	a5,7
    21ce:	00f40123          	sb	a5,2(s0)
	USBFS->DEV_ADDR  = 0x00;
    21d2:	000401a3          	sb	zero,3(s0)
	USBFS->BASE_CTRL = USBFS_UC_INT_BUSY | USBFS_UC_DMA_EN | USBFS_UC_DEV_PU_EN;
    21d6:	02900793          	li	a5,41
    21da:	00f40023          	sb	a5,0(s0)
	USBFS->INT_FG    = 0xff;
    21de:	57fd                	li	a5,-1
    21e0:	00f40323          	sb	a5,6(s0)
	USBFS_InternalFinishSetup();
    21e4:	9d6ff0ef          	jal	13ba <USBFS_InternalFinishSetup>
	USBFS->UDEV_CTRL = USBFS_UD_PD_DIS | USBFS_UD_PORT_EN;
    21e8:	f8100793          	li	a5,-127
    21ec:	00f400a3          	sb	a5,1(s0)
	NVIC->IENR[((uint32_t)(IRQn) >> 5)] = (1 << ((uint32_t)(IRQn) & 0x1F));
    21f0:	00400737          	lui	a4,0x400
    21f4:	e000e7b7          	lui	a5,0xe000e
    21f8:	10e7a023          	sw	a4,256(a5) # e000e100 <_eusrstack+0xbffee100>
		Delay_Ms(200);
	}
#endif
	USBFSSetup();

	blink(5); // Indicates boot
    21fc:	4515                	li	a0,5
    21fe:	1fffe097          	auipc	ra,0x1fffe
    2202:	e02080e7          	jalr	-510(ra) # 20000000 <blink>
#if !SK6812_DISABLE
	sk6812_set_rgb(0, SK6812_BRIGHT, 0); // green after boot
    2206:	02000593          	li	a1,32
    220a:	4501                	li	a0,0
    220c:	4601                	li	a2,0
    220e:	e96ff0ef          	jal	18a4 <sk6812_set_rgb>
		*(&R32_PA_PD_DRV + OFFSET_FOR_GPIOB(pin)) &= ~(pin & ~PB);
    2212:	400017b7          	lui	a5,0x40001
    2216:	0b478793          	addi	a5,a5,180 # 400010b4 <_eusrstack+0x1ffe10b4>
    221a:	4398                	lw	a4,0(a5)
    221c:	400016b7          	lui	a3,0x40001
    2220:	0d468693          	addi	a3,a3,212 # 400010d4 <_eusrstack+0x1ffe10d4>
    2224:	f7f77713          	andi	a4,a4,-129
    2228:	c398                	sw	a4,0(a5)
		*(&R32_PA_PU + OFFSET_FOR_GPIOB(pin))     &= ~(pin & ~PB);
    222a:	400017b7          	lui	a5,0x40001
    222e:	0b078793          	addi	a5,a5,176 # 400010b0 <_eusrstack+0x1ffe10b0>
    2232:	4398                	lw	a4,0(a5)
	R8_ADC_CONVERT &= ~RB_ADC_PGA_GAIN2;
    2234:	40001437          	lui	s0,0x40001
    2238:	05a40413          	addi	s0,s0,90 # 4000105a <_eusrstack+0x1ffe105a>
    223c:	f7f77713          	andi	a4,a4,-129
    2240:	c398                	sw	a4,0(a5)
		*(&R32_PA_DIR + OFFSET_FOR_GPIOB(pin))    &= ~(pin & ~PB);
    2242:	400017b7          	lui	a5,0x40001
    2246:	0a078793          	addi	a5,a5,160 # 400010a0 <_eusrstack+0x1ffe10a0>
    224a:	4398                	lw	a4,0(a5)
    224c:	f7f77713          	andi	a4,a4,-129
    2250:	c398                	sw	a4,0(a5)
	R32_PIN_IN_DIS |= PA7; // disable PA7 digital input
    2252:	400017b7          	lui	a5,0x40001
    2256:	4fd8                	lw	a4,28(a5)
    2258:	08076713          	ori	a4,a4,128
    225c:	cfd8                	sw	a4,28(a5)
		*(&R32_PA_PD_DRV + OFFSET_FOR_GPIOB(pin)) &= ~(pin & ~PB);
    225e:	4290                	lw	a2,0(a3)
    2260:	fffd0737          	lui	a4,0xfffd0
    2264:	cff70713          	addi	a4,a4,-769 # fffcfcff <_eusrstack+0xdffafcff>
    2268:	8e79                	and	a2,a2,a4
    226a:	c290                	sw	a2,0(a3)
		*(&R32_PA_PU + OFFSET_FOR_GPIOB(pin))     &= ~(pin & ~PB);
    226c:	400016b7          	lui	a3,0x40001
    2270:	0d068693          	addi	a3,a3,208 # 400010d0 <_eusrstack+0x1ffe10d0>
    2274:	4290                	lw	a2,0(a3)
    2276:	8e79                	and	a2,a2,a4
    2278:	c290                	sw	a2,0(a3)
		*(&R32_PA_DIR + OFFSET_FOR_GPIOB(pin))    &= ~(pin & ~PB);
    227a:	400016b7          	lui	a3,0x40001
    227e:	0c068693          	addi	a3,a3,192 # 400010c0 <_eusrstack+0x1ffe10c0>
    2282:	4290                	lw	a2,0(a3)
    2284:	8f71                	and	a4,a4,a2
    2286:	c298                	sw	a4,0(a3)
	R32_PIN_IN_DIS |= (((PB8 | PB9) & ~PB) << 16); // disable PB8 PB9 digital input
    2288:	4fd8                	lw	a4,28(a5)
    228a:	030006b7          	lui	a3,0x3000
    228e:	8f55                	or	a4,a4,a3
    2290:	cfd8                	sw	a4,28(a5)
	R16_PIN_CONFIG |= (((PB16 | PB17) & ~PB) >> 8); // gpio alt func
    2292:	01a4d783          	lhu	a5,26(s1)
    2296:	3007e793          	ori	a5,a5,768
    229a:	00f49d23          	sh	a5,26(s1)
	nfca_pcd_start();
    229e:	a9eff0ef          	jal	153c <nfca_pcd_start>
	Delay_Ms(200);
    22a2:	00be7537          	lui	a0,0xbe7
    22a6:	e0050513          	addi	a0,a0,-512 # be6e00 <ch585_grand_finale.c.9f3d4ca2+0xbe336f>
    22aa:	8faff0ef          	jal	13a4 <DelaySysTick>
	tkey_cfg = R8_TKEY_CFG;
    22ae:	400017b7          	lui	a5,0x40001
	sensor = R8_TEM_SENSOR;
    22b2:	40001737          	lui	a4,0x40001
	tkey_cfg = R8_TKEY_CFG;
    22b6:	0577c903          	lbu	s2,87(a5) # 40001057 <_eusrstack+0x1ffe1057>
	channel = R8_ADC_CHANNEL;
    22ba:	400016b7          	lui	a3,0x40001
	sensor = R8_TEM_SENSOR;
    22be:	05b74a03          	lbu	s4,91(a4) # 4000105b <_eusrstack+0x1ffe105b>
	config = R8_ADC_CFG;
    22c2:	40001737          	lui	a4,0x40001
	channel = R8_ADC_CHANNEL;
    22c6:	0586c483          	lbu	s1,88(a3) # 40001058 <_eusrstack+0x1ffe1058>
	config = R8_ADC_CFG;
    22ca:	05974983          	lbu	s3,89(a4) # 40001059 <_eusrstack+0x1ffe1059>
	R8_TKEY_CFG &= ~RB_TKEY_PWR_ON;
    22ce:	0577c603          	lbu	a2,87(a5)
	Delay_Ms(100);
    22d2:	005f3537          	lui	a0,0x5f3
    22d6:	70050513          	addi	a0,a0,1792 # 5f3700 <ch585_grand_finale.c.9f3d4ca2+0x5efc6f>
	R8_TKEY_CFG &= ~RB_TKEY_PWR_ON;
    22da:	0fe67613          	andi	a2,a2,254
    22de:	04c78ba3          	sb	a2,87(a5)
	R8_ADC_CHANNEL = CH_INTE_NFC;
    22e2:	47c1                	li	a5,16
    22e4:	04f68c23          	sb	a5,88(a3)
	R8_ADC_CFG = RB_ADC_POWER_ON | RB_ADC_BUF_EN | (SampleFreq_8_or_4 << 6) | (ADC_PGA_1_4 << 4);
    22e8:	04300793          	li	a5,67
    22ec:	04f70ca3          	sb	a5,89(a4)
	R8_ADC_CONVERT &= ~RB_ADC_PGA_GAIN2;
    22f0:	00044783          	lbu	a5,0(s0)
	tkey_cfg = R8_TKEY_CFG;
    22f4:	0ff97913          	zext.b	s2,s2
	sensor = R8_TEM_SENSOR;
    22f8:	0ffa7a13          	zext.b	s4,s4
	R8_ADC_CONVERT &= ~RB_ADC_PGA_GAIN2;
    22fc:	0fd7f793          	andi	a5,a5,253
    2300:	00f40023          	sb	a5,0(s0)
	R8_ADC_CONVERT &= ~(3 << 4);
    2304:	00044783          	lbu	a5,0(s0)
	channel = R8_ADC_CHANNEL;
    2308:	0ff4f493          	zext.b	s1,s1
	config = R8_ADC_CFG;
    230c:	0ff9f993          	zext.b	s3,s3
	R8_ADC_CONVERT &= ~(3 << 4);
    2310:	0cf7f793          	andi	a5,a5,207
    2314:	00f40023          	sb	a5,0(s0)
	Delay_Ms(100);
    2318:	88cff0ef          	jal	13a4 <DelaySysTick>
	adc_min = 0xffff;
    231c:	66c1                	lui	a3,0x10
		adc_value = R16_ADC_DATA;
    231e:	40001537          	lui	a0,0x40001
	Delay_Ms(100);
    2322:	45a9                	li	a1,10
	adc_all = 0;
    2324:	4781                	li	a5,0
	adc_min = 0xffff;
    2326:	16fd                	addi	a3,a3,-1 # ffff <ch585_grand_finale.c.9f3d4ca2+0xc56e>
	adc_max = 0;
    2328:	4701                	li	a4,0
		adc_value = R16_ADC_DATA;
    232a:	05c50513          	addi	a0,a0,92 # 4000105c <_eusrstack+0x1ffe105c>
		R8_ADC_CONVERT |= RB_ADC_START;
    232e:	00044603          	lbu	a2,0(s0)
    2332:	00166613          	ori	a2,a2,1
    2336:	00c40023          	sb	a2,0(s0)
		while (R8_ADC_CONVERT & (RB_ADC_START | RB_ADC_EOC_X));
    233a:	00044603          	lbu	a2,0(s0)
    233e:	08167613          	andi	a2,a2,129
    2342:	fe65                	bnez	a2,233a <main+0x2b8>
		adc_value = R16_ADC_DATA;
    2344:	00055883          	lhu	a7,0(a0)
		if(adc_value > adc_max) {
    2348:	883a                	mv	a6,a4
		adc_value = R16_ADC_DATA;
    234a:	01089613          	slli	a2,a7,0x10
    234e:	8241                	srli	a2,a2,0x10
		if(adc_value > adc_max) {
    2350:	01177363          	bgeu	a4,a7,2356 <main+0x2d4>
    2354:	8832                	mv	a6,a2
    2356:	01081713          	slli	a4,a6,0x10
    235a:	8341                	srli	a4,a4,0x10
		if(adc_value < adc_min) {
    235c:	8836                	mv	a6,a3
    235e:	00d67363          	bgeu	a2,a3,2364 <main+0x2e2>
    2362:	8832                	mv	a6,a2
    2364:	01081693          	slli	a3,a6,0x10
	for(int i = 0; i < 10; i++) {
    2368:	15fd                	addi	a1,a1,-1
		if(adc_value < adc_min) {
    236a:	82c1                	srli	a3,a3,0x10
		adc_all = adc_all + adc_value;
    236c:	97b2                	add	a5,a5,a2
	for(int i = 0; i < 10; i++) {
    236e:	f1e1                	bnez	a1,232e <main+0x2ac>
	R8_TEM_SENSOR = sensor;
    2370:	40001637          	lui	a2,0x40001
    2374:	05460da3          	sb	s4,91(a2) # 4000105b <_eusrstack+0x1ffe105b>
	if(channel == CH_INTE_NFC) {
    2378:	45c1                	li	a1,16
    237a:	40001637          	lui	a2,0x40001
    237e:	05860613          	addi	a2,a2,88 # 40001058 <_eusrstack+0x1ffe1058>
    2382:	06b49963          	bne	s1,a1,23f4 <main+0x372>
		R8_ADC_CHANNEL = CH_INTE_VBAT;
    2386:	45b9                	li	a1,14
    2388:	00b60023          	sb	a1,0(a2)
	adc_all = adc_all - adc_max - adc_min;
    238c:	9736                	add	a4,a4,a3
	R8_ADC_CFG = config;
    238e:	40001637          	lui	a2,0x40001
	adc_all = adc_all - adc_max - adc_min;
    2392:	8f99                	sub	a5,a5,a4
	R8_ADC_CFG = config;
    2394:	05360ca3          	sb	s3,89(a2) # 40001059 <_eusrstack+0x1ffe1059>
	gs_lpcd_adc_base_value = adc_all >> 3;
    2398:	838d                	srli	a5,a5,0x3
	R8_TKEY_CFG = tkey_cfg;
    239a:	40001637          	lui	a2,0x40001
	gs_lpcd_adc_base_value = adc_all >> 3;
    239e:	07c2                	slli	a5,a5,0x10
	R8_TKEY_CFG = tkey_cfg;
    23a0:	05260ba3          	sb	s2,87(a2) # 40001057 <_eusrstack+0x1ffe1057>
	gs_lpcd_adc_base_value = adc_all >> 3;
    23a4:	83c1                	srli	a5,a5,0x10
    23a6:	c2f19023          	sh	a5,-992(gp) # 20001320 <gs_lpcd_adc_base_value>
		gs_lpcd_adc_filter_buf[i] = gs_lpcd_adc_base_value;
    23aa:	14c18713          	addi	a4,gp,332 # 2000184c <gs_lpcd_adc_filter_buf>
    23ae:	00f71023          	sh	a5,0(a4)
    23b2:	00f71123          	sh	a5,2(a4)
    23b6:	00f71223          	sh	a5,4(a4)
    23ba:	00f71323          	sh	a5,6(a4)
    23be:	00f71423          	sh	a5,8(a4)
    23c2:	00f71523          	sh	a5,10(a4)
    23c6:	00f71623          	sh	a5,12(a4)
    23ca:	00f71723          	sh	a5,14(a4)
	R8_NFC_STATUS = 0;
    23ce:	4000e7b7          	lui	a5,0x4000e
    23d2:	000780a3          	sb	zero,1(a5) # 4000e001 <_eusrstack+0x1ffee001>
	R8_NFC_CMD = 0;
    23d6:	4000e7b7          	lui	a5,0x4000e
    23da:	00078023          	sb	zero,0(a5) # 4000e000 <_eusrstack+0x1ffee000>
	NVIC->IRER[((uint32_t)(IRQn) >> 5)] = (1 << ((uint32_t)(IRQn) & 0x1F));
    23de:	4741                	li	a4,16
    23e0:	e000e7b7          	lui	a5,0xe000e
	R8_TKEY_CFG = tkey_cfg;
    23e4:	05760613          	addi	a2,a2,87
    23e8:	18e7a223          	sw	a4,388(a5) # e000e184 <_eusrstack+0xbffee184>
#endif

	nfca_init();
	nfca_pcd_lpcd_calibration();

	main_task_loop(); // Never returns
    23ec:	1ffff097          	auipc	ra,0x1ffff
    23f0:	8fe080e7          	jalr	-1794(ra) # 20000cea <main_task_loop>
		R8_ADC_CHANNEL = channel;
    23f4:	00960023          	sb	s1,0(a2)
    23f8:	bf51                	j	238c <main+0x30a>

000023fa <__udivdi3>:
    23fa:	88aa                	mv	a7,a0
    23fc:	832e                	mv	t1,a1
    23fe:	8732                	mv	a4,a2
    2400:	882a                	mv	a6,a0
    2402:	87ae                	mv	a5,a1
    2404:	20069663          	bnez	a3,2610 <__udivdi3+0x216>
    2408:	00000597          	auipc	a1,0x0
    240c:	57458593          	addi	a1,a1,1396 # 297c <__clz_tab>
    2410:	0cc37163          	bgeu	t1,a2,24d2 <__udivdi3+0xd8>
    2414:	66c1                	lui	a3,0x10
    2416:	0ad67763          	bgeu	a2,a3,24c4 <__udivdi3+0xca>
    241a:	10063693          	sltiu	a3,a2,256
    241e:	0016b693          	seqz	a3,a3
    2422:	068e                	slli	a3,a3,0x3
    2424:	00d65533          	srl	a0,a2,a3
    2428:	95aa                	add	a1,a1,a0
    242a:	0005c583          	lbu	a1,0(a1)
    242e:	02000513          	li	a0,32
    2432:	96ae                	add	a3,a3,a1
    2434:	40d505b3          	sub	a1,a0,a3
    2438:	00d50b63          	beq	a0,a3,244e <__udivdi3+0x54>
    243c:	00b317b3          	sll	a5,t1,a1
    2440:	00d8d6b3          	srl	a3,a7,a3
    2444:	00b61733          	sll	a4,a2,a1
    2448:	8fd5                	or	a5,a5,a3
    244a:	00b89833          	sll	a6,a7,a1
    244e:	01075593          	srli	a1,a4,0x10
    2452:	02b7d333          	divu	t1,a5,a1
    2456:	01071613          	slli	a2,a4,0x10
    245a:	8241                	srli	a2,a2,0x10
    245c:	02b7f7b3          	remu	a5,a5,a1
    2460:	851a                	mv	a0,t1
    2462:	026608b3          	mul	a7,a2,t1
    2466:	01079693          	slli	a3,a5,0x10
    246a:	01085793          	srli	a5,a6,0x10
    246e:	8fd5                	or	a5,a5,a3
    2470:	0117fc63          	bgeu	a5,a7,2488 <__udivdi3+0x8e>
    2474:	97ba                	add	a5,a5,a4
    2476:	fff30513          	addi	a0,t1,-1
    247a:	00e7e763          	bltu	a5,a4,2488 <__udivdi3+0x8e>
    247e:	0117f563          	bgeu	a5,a7,2488 <__udivdi3+0x8e>
    2482:	ffe30513          	addi	a0,t1,-2
    2486:	97ba                	add	a5,a5,a4
    2488:	411787b3          	sub	a5,a5,a7
    248c:	02b7d8b3          	divu	a7,a5,a1
    2490:	0842                	slli	a6,a6,0x10
    2492:	01085813          	srli	a6,a6,0x10
    2496:	02b7f7b3          	remu	a5,a5,a1
    249a:	031606b3          	mul	a3,a2,a7
    249e:	07c2                	slli	a5,a5,0x10
    24a0:	00f86833          	or	a6,a6,a5
    24a4:	87c6                	mv	a5,a7
    24a6:	00d87b63          	bgeu	a6,a3,24bc <__udivdi3+0xc2>
    24aa:	983a                	add	a6,a6,a4
    24ac:	fff88793          	addi	a5,a7,-1
    24b0:	00e86663          	bltu	a6,a4,24bc <__udivdi3+0xc2>
    24b4:	00d87463          	bgeu	a6,a3,24bc <__udivdi3+0xc2>
    24b8:	ffe88793          	addi	a5,a7,-2
    24bc:	0542                	slli	a0,a0,0x10
    24be:	8d5d                	or	a0,a0,a5
    24c0:	4581                	li	a1,0
    24c2:	8082                	ret
    24c4:	01000537          	lui	a0,0x1000
    24c8:	46e1                	li	a3,24
    24ca:	f4a67de3          	bgeu	a2,a0,2424 <__udivdi3+0x2a>
    24ce:	46c1                	li	a3,16
    24d0:	bf91                	j	2424 <__udivdi3+0x2a>
    24d2:	4681                	li	a3,0
    24d4:	ca09                	beqz	a2,24e6 <__udivdi3+0xec>
    24d6:	67c1                	lui	a5,0x10
    24d8:	08f67f63          	bgeu	a2,a5,2576 <__udivdi3+0x17c>
    24dc:	10063693          	sltiu	a3,a2,256
    24e0:	0016b693          	seqz	a3,a3
    24e4:	068e                	slli	a3,a3,0x3
    24e6:	00d657b3          	srl	a5,a2,a3
    24ea:	95be                	add	a1,a1,a5
    24ec:	0005c783          	lbu	a5,0(a1)
    24f0:	97b6                	add	a5,a5,a3
    24f2:	02000693          	li	a3,32
    24f6:	40f685b3          	sub	a1,a3,a5
    24fa:	08f69563          	bne	a3,a5,2584 <__udivdi3+0x18a>
    24fe:	40c307b3          	sub	a5,t1,a2
    2502:	4585                	li	a1,1
    2504:	01075893          	srli	a7,a4,0x10
    2508:	0317de33          	divu	t3,a5,a7
    250c:	01071613          	slli	a2,a4,0x10
    2510:	8241                	srli	a2,a2,0x10
    2512:	01085693          	srli	a3,a6,0x10
    2516:	0317f7b3          	remu	a5,a5,a7
    251a:	8572                	mv	a0,t3
    251c:	03c60333          	mul	t1,a2,t3
    2520:	07c2                	slli	a5,a5,0x10
    2522:	8fd5                	or	a5,a5,a3
    2524:	0067fc63          	bgeu	a5,t1,253c <__udivdi3+0x142>
    2528:	97ba                	add	a5,a5,a4
    252a:	fffe0513          	addi	a0,t3,-1
    252e:	00e7e763          	bltu	a5,a4,253c <__udivdi3+0x142>
    2532:	0067f563          	bgeu	a5,t1,253c <__udivdi3+0x142>
    2536:	ffee0513          	addi	a0,t3,-2
    253a:	97ba                	add	a5,a5,a4
    253c:	406787b3          	sub	a5,a5,t1
    2540:	0317d333          	divu	t1,a5,a7
    2544:	0842                	slli	a6,a6,0x10
    2546:	01085813          	srli	a6,a6,0x10
    254a:	0317f7b3          	remu	a5,a5,a7
    254e:	026606b3          	mul	a3,a2,t1
    2552:	07c2                	slli	a5,a5,0x10
    2554:	00f86833          	or	a6,a6,a5
    2558:	879a                	mv	a5,t1
    255a:	00d87b63          	bgeu	a6,a3,2570 <__udivdi3+0x176>
    255e:	983a                	add	a6,a6,a4
    2560:	fff30793          	addi	a5,t1,-1
    2564:	00e86663          	bltu	a6,a4,2570 <__udivdi3+0x176>
    2568:	00d87463          	bgeu	a6,a3,2570 <__udivdi3+0x176>
    256c:	ffe30793          	addi	a5,t1,-2
    2570:	0542                	slli	a0,a0,0x10
    2572:	8d5d                	or	a0,a0,a5
    2574:	8082                	ret
    2576:	010007b7          	lui	a5,0x1000
    257a:	46e1                	li	a3,24
    257c:	f6f675e3          	bgeu	a2,a5,24e6 <__udivdi3+0xec>
    2580:	46c1                	li	a3,16
    2582:	b795                	j	24e6 <__udivdi3+0xec>
    2584:	00b61733          	sll	a4,a2,a1
    2588:	00f356b3          	srl	a3,t1,a5
    258c:	01075513          	srli	a0,a4,0x10
    2590:	00b31333          	sll	t1,t1,a1
    2594:	00f8d7b3          	srl	a5,a7,a5
    2598:	0067e7b3          	or	a5,a5,t1
    259c:	02a6d333          	divu	t1,a3,a0
    25a0:	01071613          	slli	a2,a4,0x10
    25a4:	8241                	srli	a2,a2,0x10
    25a6:	00b89833          	sll	a6,a7,a1
    25aa:	02a6f6b3          	remu	a3,a3,a0
    25ae:	026608b3          	mul	a7,a2,t1
    25b2:	01069593          	slli	a1,a3,0x10
    25b6:	0107d693          	srli	a3,a5,0x10
    25ba:	8ecd                	or	a3,a3,a1
    25bc:	859a                	mv	a1,t1
    25be:	0116fc63          	bgeu	a3,a7,25d6 <__udivdi3+0x1dc>
    25c2:	96ba                	add	a3,a3,a4
    25c4:	fff30593          	addi	a1,t1,-1
    25c8:	00e6e763          	bltu	a3,a4,25d6 <__udivdi3+0x1dc>
    25cc:	0116f563          	bgeu	a3,a7,25d6 <__udivdi3+0x1dc>
    25d0:	ffe30593          	addi	a1,t1,-2
    25d4:	96ba                	add	a3,a3,a4
    25d6:	411686b3          	sub	a3,a3,a7
    25da:	02a6d8b3          	divu	a7,a3,a0
    25de:	07c2                	slli	a5,a5,0x10
    25e0:	83c1                	srli	a5,a5,0x10
    25e2:	02a6f6b3          	remu	a3,a3,a0
    25e6:	03160633          	mul	a2,a2,a7
    25ea:	06c2                	slli	a3,a3,0x10
    25ec:	8fd5                	or	a5,a5,a3
    25ee:	86c6                	mv	a3,a7
    25f0:	00c7fc63          	bgeu	a5,a2,2608 <__udivdi3+0x20e>
    25f4:	97ba                	add	a5,a5,a4
    25f6:	fff88693          	addi	a3,a7,-1
    25fa:	00e7e763          	bltu	a5,a4,2608 <__udivdi3+0x20e>
    25fe:	00c7f563          	bgeu	a5,a2,2608 <__udivdi3+0x20e>
    2602:	ffe88693          	addi	a3,a7,-2
    2606:	97ba                	add	a5,a5,a4
    2608:	05c2                	slli	a1,a1,0x10
    260a:	8f91                	sub	a5,a5,a2
    260c:	8dd5                	or	a1,a1,a3
    260e:	bddd                	j	2504 <__udivdi3+0x10a>
    2610:	14d5e163          	bltu	a1,a3,2752 <__udivdi3+0x358>
    2614:	67c1                	lui	a5,0x10
    2616:	02f6ff63          	bgeu	a3,a5,2654 <__udivdi3+0x25a>
    261a:	1006b713          	sltiu	a4,a3,256
    261e:	00173713          	seqz	a4,a4
    2622:	070e                	slli	a4,a4,0x3
    2624:	00e6d5b3          	srl	a1,a3,a4
    2628:	00000797          	auipc	a5,0x0
    262c:	35478793          	addi	a5,a5,852 # 297c <__clz_tab>
    2630:	97ae                	add	a5,a5,a1
    2632:	0007c783          	lbu	a5,0(a5)
    2636:	97ba                	add	a5,a5,a4
    2638:	02000713          	li	a4,32
    263c:	40f705b3          	sub	a1,a4,a5
    2640:	02f71163          	bne	a4,a5,2662 <__udivdi3+0x268>
    2644:	4505                	li	a0,1
    2646:	e666eee3          	bltu	a3,t1,24c2 <__udivdi3+0xc8>
    264a:	00c8b533          	sltu	a0,a7,a2
    264e:	00153513          	seqz	a0,a0
    2652:	8082                	ret
    2654:	010007b7          	lui	a5,0x1000
    2658:	4761                	li	a4,24
    265a:	fcf6f5e3          	bgeu	a3,a5,2624 <__udivdi3+0x22a>
    265e:	4741                	li	a4,16
    2660:	b7d1                	j	2624 <__udivdi3+0x22a>
    2662:	00f65733          	srl	a4,a2,a5
    2666:	00b696b3          	sll	a3,a3,a1
    266a:	8ed9                	or	a3,a3,a4
    266c:	00f35733          	srl	a4,t1,a5
    2670:	00b31333          	sll	t1,t1,a1
    2674:	00f8d7b3          	srl	a5,a7,a5
    2678:	0067e7b3          	or	a5,a5,t1
    267c:	0106d313          	srli	t1,a3,0x10
    2680:	02675eb3          	divu	t4,a4,t1
    2684:	01069813          	slli	a6,a3,0x10
    2688:	01085813          	srli	a6,a6,0x10
    268c:	00b61633          	sll	a2,a2,a1
    2690:	02677733          	remu	a4,a4,t1
    2694:	03d80e33          	mul	t3,a6,t4
    2698:	01071513          	slli	a0,a4,0x10
    269c:	0107d713          	srli	a4,a5,0x10
    26a0:	8f49                	or	a4,a4,a0
    26a2:	8576                	mv	a0,t4
    26a4:	01c77c63          	bgeu	a4,t3,26bc <__udivdi3+0x2c2>
    26a8:	9736                	add	a4,a4,a3
    26aa:	fffe8513          	addi	a0,t4,-1
    26ae:	00d76763          	bltu	a4,a3,26bc <__udivdi3+0x2c2>
    26b2:	01c77563          	bgeu	a4,t3,26bc <__udivdi3+0x2c2>
    26b6:	ffee8513          	addi	a0,t4,-2
    26ba:	9736                	add	a4,a4,a3
    26bc:	41c70733          	sub	a4,a4,t3
    26c0:	02675e33          	divu	t3,a4,t1
    26c4:	07c2                	slli	a5,a5,0x10
    26c6:	83c1                	srli	a5,a5,0x10
    26c8:	02677733          	remu	a4,a4,t1
    26cc:	03c80833          	mul	a6,a6,t3
    26d0:	0742                	slli	a4,a4,0x10
    26d2:	8fd9                	or	a5,a5,a4
    26d4:	8772                	mv	a4,t3
    26d6:	0107fc63          	bgeu	a5,a6,26ee <__udivdi3+0x2f4>
    26da:	97b6                	add	a5,a5,a3
    26dc:	fffe0713          	addi	a4,t3,-1
    26e0:	00d7e763          	bltu	a5,a3,26ee <__udivdi3+0x2f4>
    26e4:	0107f563          	bgeu	a5,a6,26ee <__udivdi3+0x2f4>
    26e8:	ffee0713          	addi	a4,t3,-2
    26ec:	97b6                	add	a5,a5,a3
    26ee:	0542                	slli	a0,a0,0x10
    26f0:	6e41                	lui	t3,0x10
    26f2:	8d59                	or	a0,a0,a4
    26f4:	fffe0693          	addi	a3,t3,-1 # ffff <ch585_grand_finale.c.9f3d4ca2+0xc56e>
    26f8:	00d57733          	and	a4,a0,a3
    26fc:	410787b3          	sub	a5,a5,a6
    2700:	8ef1                	and	a3,a3,a2
    2702:	01055813          	srli	a6,a0,0x10
    2706:	8241                	srli	a2,a2,0x10
    2708:	02d70333          	mul	t1,a4,a3
    270c:	02d806b3          	mul	a3,a6,a3
    2710:	02c70733          	mul	a4,a4,a2
    2714:	02c80833          	mul	a6,a6,a2
    2718:	00d70633          	add	a2,a4,a3
    271c:	01035713          	srli	a4,t1,0x10
    2720:	9732                	add	a4,a4,a2
    2722:	00d77363          	bgeu	a4,a3,2728 <__udivdi3+0x32e>
    2726:	9872                	add	a6,a6,t3
    2728:	01075693          	srli	a3,a4,0x10
    272c:	96c2                	add	a3,a3,a6
    272e:	02d7e063          	bltu	a5,a3,274e <__udivdi3+0x354>
    2732:	d8d797e3          	bne	a5,a3,24c0 <__udivdi3+0xc6>
    2736:	67c1                	lui	a5,0x10
    2738:	17fd                	addi	a5,a5,-1 # ffff <ch585_grand_finale.c.9f3d4ca2+0xc56e>
    273a:	8f7d                	and	a4,a4,a5
    273c:	0742                	slli	a4,a4,0x10
    273e:	00f37333          	and	t1,t1,a5
    2742:	00b898b3          	sll	a7,a7,a1
    2746:	971a                	add	a4,a4,t1
    2748:	4581                	li	a1,0
    274a:	d6e8fce3          	bgeu	a7,a4,24c2 <__udivdi3+0xc8>
    274e:	157d                	addi	a0,a0,-1 # ffffff <ch585_grand_finale.c.9f3d4ca2+0xffc56e>
    2750:	bb85                	j	24c0 <__udivdi3+0xc6>
    2752:	4581                	li	a1,0
    2754:	4501                	li	a0,0
    2756:	8082                	ret

00002758 <string3>:
    2758:	0308 0035 0038 0035 0000 0000               ..5.8.5.....

00002764 <string2>:
    2764:	030a 004e 0046 0043 0041 0000               ..N.F.C.A...

00002770 <string1>:
    2770:	0310 0063 0068 0033 0032 0066 0075 006e     ..c.h.3.2.f.u.n.
    2780:	0000 0000                                   ....

00002784 <string0>:
    2784:	0304 0409 1ddc 0000 1d50 0000 1c7e 0000     ........P...~...
    2794:	1d88 0000 1c7e 0000 1d0a 0000 1ca0 0000     ....~...........
    27a4:	1c7e 0000 1d10 0000 1d24 0000 1dd0 0000     ~.......$.......
    27b4:	1cca 0000 666e 6163 3835 2035 3176 0000     ....nfca585 v1..

000027c4 <config_descriptor>:
    27c4:	0209 0020 0101 a000 0932 0004 0200 ffff     .. .....2.......
    27d4:	03ff 0507 0281 0040 0701 0205 4002 0100     ......@......@..

000027e4 <device_descriptor>:
    27e4:	0112 0110 0000 4000 1209 d035 0007 0201     .......@..5.....
    27f4:	0103 0000                                   ....

000027f8 <g_sine32>:
    27f8:	1900 4731 6a5a 7d75 7d7f 6a75 475a 1931     ..1GZju}.}ujZG1.
    2808:	e700 b9cf 96a6 838b 8381 968b b9a6 e7cf     ................

00002818 <g_tag_cue>:
    2818:	0438 020b 0438 0293 0438 0310 0690 0370     8...8...8.....p.

00002828 <led_pattern_ms.0>:
    2828:	003c 003c 003c 012c 00c8 0320               <.<.<.,... .

00002834 <byteParityBitsTable>:
    2834:	0001 0100 0100 0001 0100 0001 0001 0100     ................
    2844:	0100 0001 0001 0100 0001 0100 0100 0001     ................
    2854:	0100 0001 0001 0100 0001 0100 0100 0001     ................
    2864:	0001 0100 0100 0001 0100 0001 0001 0100     ................
    2874:	0100 0001 0001 0100 0001 0100 0100 0001     ................
    2884:	0001 0100 0100 0001 0100 0001 0001 0100     ................
    2894:	0001 0100 0100 0001 0100 0001 0001 0100     ................
    28a4:	0100 0001 0001 0100 0001 0100 0100 0001     ................
    28b4:	0100 0001 0001 0100 0001 0100 0100 0001     ................
    28c4:	0001 0100 0100 0001 0100 0001 0001 0100     ................
    28d4:	0001 0100 0100 0001 0100 0001 0001 0100     ................
    28e4:	0100 0001 0001 0100 0001 0100 0100 0001     ................
    28f4:	0001 0100 0100 0001 0100 0001 0001 0100     ................
    2904:	0100 0001 0001 0100 0001 0100 0100 0001     ................
    2914:	0100 0001 0001 0100 0001 0100 0100 0001     ................
    2924:	0001 0100 0100 0001 0100 0001 0001 0100     ................

00002934 <descriptor_list>:
    2934:	0100 0000 27e4 0000 0012 0000 0200 0000     .....'..........
    2944:	27c4 0000 0020 0000 0300 0000 2784 0000     .'.. ........'..
    2954:	0004 0000 0301 0409 2770 0000 0010 0000     ........p'......
    2964:	0302 0409 2764 0000 000a 0000 0303 0409     ....d'..........
    2974:	2758 0000 0008 0000                         X'......

0000297c <__clz_tab>:
    297c:	0100 0202 0303 0303 0404 0404 0404 0404     ................
    298c:	0505 0505 0505 0505 0505 0505 0505 0505     ................
    299c:	0606 0606 0606 0606 0606 0606 0606 0606     ................
    29ac:	0606 0606 0606 0606 0606 0606 0606 0606     ................
    29bc:	0707 0707 0707 0707 0707 0707 0707 0707     ................
    29cc:	0707 0707 0707 0707 0707 0707 0707 0707     ................
    29dc:	0707 0707 0707 0707 0707 0707 0707 0707     ................
    29ec:	0707 0707 0707 0707 0707 0707 0707 0707     ................
    29fc:	0808 0808 0808 0808 0808 0808 0808 0808     ................
    2a0c:	0808 0808 0808 0808 0808 0808 0808 0808     ................
    2a1c:	0808 0808 0808 0808 0808 0808 0808 0808     ................
    2a2c:	0808 0808 0808 0808 0808 0808 0808 0808     ................
    2a3c:	0808 0808 0808 0808 0808 0808 0808 0808     ................
    2a4c:	0808 0808 0808 0808 0808 0808 0808 0808     ................
    2a5c:	0808 0808 0808 0808 0808 0808 0808 0808     ................
    2a6c:	0808 0808 0808 0808 0808 0808 0808 0808     ................
