
ch585_grand_finale.elf:     file format elf32-littleriscv


Disassembly of section .init:

00000000 <InterruptVector>:
   0:	26f0106f          	j	1a6e <handle_reset>
   4:	00000000          	.word	0x00000000
   8:	00001b1e          	.word	0x00001b1e
   c:	00001b1e          	.word	0x00001b1e
  10:	f3f9bda9          	.word	0xf3f9bda9
  14:	00001b1e          	.word	0x00001b1e
	...
  20:	00001b1e          	.word	0x00001b1e
  24:	00001b1e          	.word	0x00001b1e
	...
  30:	00001b1e          	.word	0x00001b1e
  34:	00000000          	.word	0x00000000
  38:	00001b1e          	.word	0x00001b1e
  3c:	00000000          	.word	0x00000000
  40:	00001b1e          	.word	0x00001b1e
  44:	00001b1e          	.word	0x00001b1e
  48:	000021ec          	.word	0x000021ec
  4c:	00001b1e          	.word	0x00001b1e
  50:	00001b1e          	.word	0x00001b1e
  54:	00001b1e          	.word	0x00001b1e
  58:	00001b20          	.word	0x00001b20
  5c:	00000000          	.word	0x00000000
  60:	00001b1e          	.word	0x00001b1e
  64:	00001b1e          	.word	0x00001b1e
  68:	00001b1e          	.word	0x00001b1e
  6c:	00001b1e          	.word	0x00001b1e
  70:	00001b1e          	.word	0x00001b1e
  74:	00001b1e          	.word	0x00001b1e
  78:	00001b1e          	.word	0x00001b1e
  7c:	00001b1e          	.word	0x00001b1e
  80:	00001b1e          	.word	0x00001b1e
  84:	00001b1e          	.word	0x00001b1e
  88:	00001b1e          	.word	0x00001b1e
  8c:	00001b1e          	.word	0x00001b1e
  90:	20000278          	.word	0x20000278
  94:	00001b1e          	.word	0x00001b1e
  98:	00001b1e          	.word	0x00001b1e
  9c:	00001b1e          	.word	0x00001b1e

Disassembly of section .highcode:

20000000 <blink>:
	0, 1, 1, 0, 1, 0, 0, 1, 1, 0, 0, 1, 0, 1, 1, 0,
	1, 0, 0, 1, 0, 1, 1, 0, 0, 1, 1, 0, 1, 0, 0, 1
};

__HIGH_CODE
void blink(int n) {
20000000:	1101                	addi	sp,sp,-32
20000002:	ca26                	sw	s1,20(sp)
			case 0: sk6812_set_rgb(SK6812_BRIGHT, 0, 0); break;
			case 1: sk6812_set_rgb(0, SK6812_BRIGHT, 0); break;
			default: sk6812_set_rgb(0, 0, SK6812_BRIGHT); break;
		}
#endif
		Delay_Ms(33);
20000004:	001f74b7          	lui	s1,0x1f7
void blink(int n) {
20000008:	cc22                	sw	s0,24(sp)
2000000a:	c84a                	sw	s2,16(sp)
2000000c:	c64e                	sw	s3,12(sp)
2000000e:	ce06                	sw	ra,28(sp)
	for(int i = n-1; i >= 0; i--) {
20000010:	fff50413          	addi	s0,a0,-1
		switch( i % 3 )
20000014:	490d                	li	s2,3
20000016:	4985                	li	s3,1
		Delay_Ms(33);
20000018:	bc048493          	addi	s1,s1,-1088 # 1f6bc0 <ch585_grand_finale.c.edbc3f23+0x1f2d23>
	for(int i = n-1; i >= 0; i--) {
2000001c:	00045963          	bgez	s0,2000002e <blink+0x2e>
#if !SK6812_DISABLE
		sk6812_set_rgb(0, 0, 0);
#endif
		if(i) Delay_Ms(33);
	}
}
20000020:	40f2                	lw	ra,28(sp)
20000022:	4462                	lw	s0,24(sp)
20000024:	44d2                	lw	s1,20(sp)
20000026:	4942                	lw	s2,16(sp)
20000028:	49b2                	lw	s3,12(sp)
2000002a:	6105                	addi	sp,sp,32
2000002c:	8082                	ret
		switch( i % 3 )
2000002e:	032467b3          	rem	a5,s0,s2
20000032:	c791                	beqz	a5,2000003e <blink+0x3e>
20000034:	01378963          	beq	a5,s3,20000046 <blink+0x46>
	sk6812_set_grbw(g, r, b, SK6812_W_BRIGHT);
20000038:	4661                	li	a2,24
2000003a:	4581                	li	a1,0
2000003c:	a019                	j	20000042 <blink+0x42>
2000003e:	4601                	li	a2,0
20000040:	45e1                	li	a1,24
20000042:	4501                	li	a0,0
20000044:	a021                	j	2000004c <blink+0x4c>
20000046:	4601                	li	a2,0
20000048:	4581                	li	a1,0
2000004a:	4561                	li	a0,24
2000004c:	e0002097          	auipc	ra,0xe0002
20000050:	998080e7          	jalr	-1640(ra) # 19e4 <sk6812_set_grbw.constprop.0>
		Delay_Ms(33);
20000054:	8526                	mv	a0,s1
20000056:	e0001097          	auipc	ra,0xe0001
2000005a:	47a080e7          	jalr	1146(ra) # 14d0 <DelaySysTick>
	sk6812_set_grbw(g, r, b, SK6812_W_BRIGHT);
2000005e:	4601                	li	a2,0
20000060:	4581                	li	a1,0
20000062:	4501                	li	a0,0
20000064:	e0002097          	auipc	ra,0xe0002
20000068:	980080e7          	jalr	-1664(ra) # 19e4 <sk6812_set_grbw.constprop.0>
		if(i) Delay_Ms(33);
2000006c:	c411                	beqz	s0,20000078 <blink+0x78>
2000006e:	8526                	mv	a0,s1
20000070:	e0001097          	auipc	ra,0xe0001
20000074:	460080e7          	jalr	1120(ra) # 14d0 <DelaySysTick>
	for(int i = n-1; i >= 0; i--) {
20000078:	147d                	addi	s0,s0,-1
2000007a:	b74d                	j	2000001c <blink+0x1c>

2000007c <HandleDataOut>:

__HIGH_CODE
void HandleDataOut( struct _USBState * ctx, int endp, uint8_t * data, int len ) {
	(void)ctx;

	if (endp != USB_EP_RX) return;
2000007c:	4789                	li	a5,2
2000007e:	1cf58863          	beq	a1,a5,2000024e <HandleDataOut+0x1d2>
20000082:	8082                	ret
	// [uint16_le payload_len][payload bytes...]
	//
	// We must assemble because USBFS max packet size is 64 bytes.
	int i = 0;
	while (i < len) {
		if (g_usb_rx_len_bytes < 2) {
20000084:	c321c703          	lbu	a4,-974(gp) # 2000145e <g_usb_rx_len_bytes>
20000088:	4785                	li	a5,1
2000008a:	08e7e263          	bltu	a5,a4,2000010e <HandleDataOut+0x92>
			if (g_usb_rx_len_bytes == 0) g_usb_rx_len_tmp0 = data[i++];
2000008e:	c321c703          	lbu	a4,-974(gp) # 2000145e <g_usb_rx_len_bytes>
20000092:	008b07b3          	add	a5,s6,s0
20000096:	0007c783          	lbu	a5,0(a5)
2000009a:	e329                	bnez	a4,200000dc <HandleDataOut+0x60>
2000009c:	c2f188a3          	sb	a5,-975(gp) # 2000145d <g_usb_rx_len_tmp0>
			else g_usb_rx_len_tmp1 = data[i++];
			g_usb_rx_len_bytes++;
200000a0:	c321c783          	lbu	a5,-974(gp) # 2000145e <g_usb_rx_len_bytes>
200000a4:	0785                	addi	a5,a5,1
200000a6:	0ff7f793          	zext.b	a5,a5
200000aa:	c2f18923          	sb	a5,-974(gp) # 2000145e <g_usb_rx_len_bytes>

			if (g_usb_rx_len_bytes == 2) {
200000ae:	c321c703          	lbu	a4,-974(gp) # 2000145e <g_usb_rx_len_bytes>
200000b2:	4789                	li	a5,2
200000b4:	02f71063          	bne	a4,a5,200000d4 <HandleDataOut+0x58>
				g_usb_rx_expected = (uint16_t)g_usb_rx_len_tmp0 | ((uint16_t)g_usb_rx_len_tmp1 << 8);
200000b8:	c311c703          	lbu	a4,-975(gp) # 2000145d <g_usb_rx_len_tmp0>
200000bc:	c301c783          	lbu	a5,-976(gp) # 2000145c <g_usb_rx_len_tmp1>
200000c0:	07a2                	slli	a5,a5,0x8
200000c2:	8fd9                	or	a5,a5,a4
200000c4:	c2f19723          	sh	a5,-978(gp) # 2000145a <g_usb_rx_expected>

				// Refuse oversized messages; reset assembly to re-sync.
				if (g_usb_rx_expected > USB_APP_MAX_PAYLOAD) {
200000c8:	c2e1d703          	lhu	a4,-978(gp) # 2000145a <g_usb_rx_expected>
200000cc:	1fe00793          	li	a5,510
200000d0:	00e7e963          	bltu	a5,a4,200000e2 <HandleDataOut+0x66>
			if (g_usb_rx_len_bytes == 0) g_usb_rx_len_tmp0 = data[i++];
200000d4:	0405                	addi	s0,s0,1
	while (i < len) {
200000d6:	fb5447e3          	blt	s0,s5,20000084 <HandleDataOut+0x8>
200000da:	a821                	j	200000f2 <HandleDataOut+0x76>
			else g_usb_rx_len_tmp1 = data[i++];
200000dc:	c2f18823          	sb	a5,-976(gp) # 2000145c <g_usb_rx_len_tmp1>
200000e0:	b7c1                	j	200000a0 <HandleDataOut+0x24>
					usb_rx_reset_assembly();
200000e2:	e0001097          	auipc	ra,0xe0001
200000e6:	686080e7          	jalr	1670(ra) # 1768 <usb_rx_reset_assembly>
					((uint16_t*)gs_usb_data_buf)[0] = 0;
200000ea:	200027b7          	lui	a5,0x20002
200000ee:	f6079e23          	sh	zero,-132(a5) # 20001f7c <gs_usb_data_buf>

			usb_rx_reset_assembly();
			return;
		}
	}
}
200000f2:	50b2                	lw	ra,44(sp)
200000f4:	5422                	lw	s0,40(sp)
200000f6:	5492                	lw	s1,36(sp)
200000f8:	5902                	lw	s2,32(sp)
200000fa:	49f2                	lw	s3,28(sp)
200000fc:	4a62                	lw	s4,24(sp)
200000fe:	4ad2                	lw	s5,20(sp)
20000100:	4b42                	lw	s6,16(sp)
20000102:	4bb2                	lw	s7,12(sp)
20000104:	4c22                	lw	s8,8(sp)
20000106:	4c92                	lw	s9,4(sp)
20000108:	4d02                	lw	s10,0(sp)
2000010a:	6145                	addi	sp,sp,48
2000010c:	8082                	ret
		if (((uint16_t*)gs_usb_data_buf)[0]) {
2000010e:	f7cbd783          	lhu	a5,-132(s7)
20000112:	c395                	beqz	a5,20000136 <HandleDataOut+0xba>
}
20000114:	5422                	lw	s0,40(sp)
20000116:	50b2                	lw	ra,44(sp)
20000118:	5492                	lw	s1,36(sp)
2000011a:	5902                	lw	s2,32(sp)
2000011c:	49f2                	lw	s3,28(sp)
2000011e:	4a62                	lw	s4,24(sp)
20000120:	4ad2                	lw	s5,20(sp)
20000122:	4b42                	lw	s6,16(sp)
20000124:	4bb2                	lw	s7,12(sp)
20000126:	4c22                	lw	s8,8(sp)
20000128:	4c92                	lw	s9,4(sp)
2000012a:	4d02                	lw	s10,0(sp)
2000012c:	6145                	addi	sp,sp,48
			usb_rx_reset_assembly();
2000012e:	e0001317          	auipc	t1,0xe0001
20000132:	63a30067          	jr	1594(t1) # 1768 <usb_rx_reset_assembly>
		uint16_t remaining = g_usb_rx_expected - g_usb_rx_received;
20000136:	c2e1d783          	lhu	a5,-978(gp) # 2000145a <g_usb_rx_expected>
2000013a:	c2c1d703          	lhu	a4,-980(gp) # 20001458 <g_usb_rx_received>
2000013e:	8f99                	sub	a5,a5,a4
		uint16_t take = (uint16_t)(len - i);
20000140:	408a8733          	sub	a4,s5,s0
		if (take > remaining) take = remaining;
20000144:	893e                	mv	s2,a5
20000146:	01071693          	slli	a3,a4,0x10
2000014a:	07c2                	slli	a5,a5,0x10
2000014c:	83c1                	srli	a5,a5,0x10
2000014e:	82c1                	srli	a3,a3,0x10
20000150:	00f6f363          	bgeu	a3,a5,20000156 <HandleDataOut+0xda>
20000154:	893a                	mv	s2,a4
		memcpy((void*)&gs_usb_data_buf[2 + g_usb_rx_received], &data[i], take);
20000156:	c2c1d503          	lhu	a0,-980(gp) # 20001458 <g_usb_rx_received>
		if (take > remaining) take = remaining;
2000015a:	0942                	slli	s2,s2,0x10
2000015c:	01095913          	srli	s2,s2,0x10
		memcpy((void*)&gs_usb_data_buf[2 + g_usb_rx_received], &data[i], take);
20000160:	0509                	addi	a0,a0,2
20000162:	008b05b3          	add	a1,s6,s0
20000166:	864a                	mv	a2,s2
20000168:	9562                	add	a0,a0,s8
2000016a:	e0002097          	auipc	ra,0xe0002
2000016e:	e80080e7          	jalr	-384(ra) # 1fea <memcpy>
		g_usb_rx_received += take;
20000172:	c2c1d783          	lhu	a5,-980(gp) # 20001458 <g_usb_rx_received>
		i += take;
20000176:	944a                	add	s0,s0,s2
		g_usb_rx_received += take;
20000178:	97ca                	add	a5,a5,s2
2000017a:	07c2                	slli	a5,a5,0x10
2000017c:	83c1                	srli	a5,a5,0x10
2000017e:	c2f19623          	sh	a5,-980(gp) # 20001458 <g_usb_rx_received>
		if (g_usb_rx_received >= g_usb_rx_expected) {
20000182:	c2c1d703          	lhu	a4,-980(gp) # 20001458 <g_usb_rx_received>
20000186:	c2e1d783          	lhu	a5,-978(gp) # 2000145a <g_usb_rx_expected>
2000018a:	f4f766e3          	bltu	a4,a5,200000d6 <HandleDataOut+0x5a>
			((uint16_t*)gs_usb_data_buf)[0] = g_usb_rx_expected;
2000018e:	c2e1d783          	lhu	a5,-978(gp) # 2000145a <g_usb_rx_expected>
			if (g_usb_rx_expected == 4 && ((uint32_t*)&gs_usb_data_buf[2])[0] == 0x010001a2) {
20000192:	c2e1d703          	lhu	a4,-978(gp) # 2000145a <g_usb_rx_expected>
			((uint16_t*)gs_usb_data_buf)[0] = g_usb_rx_expected;
20000196:	f6fb9e23          	sh	a5,-132(s7)
			if (g_usb_rx_expected == 4 && ((uint32_t*)&gs_usb_data_buf[2])[0] == 0x010001a2) {
2000019a:	4791                	li	a5,4
2000019c:	f6f71ce3          	bne	a4,a5,20000114 <HandleDataOut+0x98>
200001a0:	004c5783          	lhu	a5,4(s8)
200001a4:	002c5703          	lhu	a4,2(s8)
200001a8:	07c2                	slli	a5,a5,0x10
200001aa:	8fd9                	or	a5,a5,a4
200001ac:	01000737          	lui	a4,0x1000
200001b0:	1a270713          	addi	a4,a4,418 # 10001a2 <ch585_grand_finale.c.edbc3f23+0xffc305>
200001b4:	f6e790e3          	bne	a5,a4,20000114 <HandleDataOut+0x98>
}

// Disable Interrupt (by interrupt number)
RV_STATIC_INLINE void NVIC_DisableIRQ(IRQn_Type IRQn)
{
	NVIC->IRER[((uint32_t)(IRQn) >> 5)] = (1 << ((uint32_t)(IRQn) & 0x1F));
200001b8:	e000e7b7          	lui	a5,0xe000e
200001bc:	00400737          	lui	a4,0x400
200001c0:	18e7a023          	sw	a4,384(a5) # e000e180 <_eusrstack+0xbffee180>
{
	NVIC_DisableIRQ( USB_IRQn );
#if defined (CH570_CH572)
	R16_PIN_ALTERNATE &= ~(RB_PIN_USB_EN | RB_UDP_PU_EN);
#elif defined (CH584_CH585)
	R16_PIN_CONFIG &= ~(RB_PIN_USB_EN | RB_UDP_PU_EN);
200001c4:	400017b7          	lui	a5,0x40001
200001c8:	01a7d703          	lhu	a4,26(a5) # 4000101a <_eusrstack+0x1ffe101a>
200001cc:	66c1                	lui	a3,0x10
200001ce:	f3f68693          	addi	a3,a3,-193 # ff3f <ch585_grand_finale.c.edbc3f23+0xc0a2>
200001d2:	8f75                	and	a4,a4,a3
200001d4:	00e79d23          	sh	a4,26(a5)
#else
	R16_PIN_ANALOG_IE &= ~(RB_PIN_USB_IE | RB_PIN_USB_DP_PU);
#endif
	USBFS->BASE_CTRL = USBFS_UC_RESET_SIE | USBFS_UC_CLR_ALL;
200001d8:	400087b7          	lui	a5,0x40008
200001dc:	4719                	li	a4,6
200001de:	00e78023          	sb	a4,0(a5) # 40008000 <_eusrstack+0x1ffe8000>
	USBFS->BASE_CTRL = 0x00;
200001e2:	00078023          	sb	zero,0(a5)
	Delay_Us(10);
200001e6:	26c00513          	li	a0,620
200001ea:	e0001097          	auipc	ra,0xe0001
200001ee:	2e6080e7          	jalr	742(ra) # 14d0 <DelaySysTick>
				blink(2);
200001f2:	4509                	li	a0,2
200001f4:	3531                	jal	20000000 <blink>
#define LL_TX_POWER_7_DBM           0x3B


RV_STATIC_INLINE void jump_isprom()
{
	memcpy((void*)ISPROM_IN_RAM_ADDRESS, (void*)(ISPROM_ADDRESS + ISPROM_START_OFFSET), ISPROM_SIZE); // copy bootloader to ram
200001f6:	6609                	lui	a2,0x2
200001f8:	000785b7          	lui	a1,0x78
200001fc:	50060613          	addi	a2,a2,1280 # 2500 <main+0x310>
20000200:	08858593          	addi	a1,a1,136 # 78088 <ch585_grand_finale.c.edbc3f23+0x741eb>
20000204:	20000537          	lui	a0,0x20000
20000208:	e0002097          	auipc	ra,0xe0002
2000020c:	de2080e7          	jalr	-542(ra) # 1fea <memcpy>
#ifdef CH570_CH572	
	*(int32_t*)(ISPROM_BOOTBUTTON_CHECK_ADDRESS + 0xc) = 0x00014505; // nop \n li a0,1, patch PA1 detection
#elif defined(CH582_CH583)
	*(int16_t*)(ISPROM_BOOTBUTTON_CHECK_ADDRESS + 0xe) = 0x4505; // li a0, 1, patch PB22 detection to always return true
#elif (defined(CH584_CH585) || defined(CH591_CH592))
	*(int16_t*)(ISPROM_BOOTBUTTON_CHECK_ADDRESS + 0xa) = 0x4505; // li a0,1, patch PB11 (option byte is not read correctly) detection
20000210:	6711                	lui	a4,0x4
20000212:	200007b7          	lui	a5,0x20000
20000216:	50570713          	addi	a4,a4,1285 # 4505 <ch585_grand_finale.c.edbc3f23+0x668>
#endif
	
#if (defined(CH570_CH572) || defined(CH584_CH585) || defined(CH591_CH592))
	memset((void*)ISPROM_BSS_ADDRESS, 0, ISPROM_BSS_SIZE); // clear .bss
2000021a:	20002537          	lui	a0,0x20002
	*(int16_t*)(ISPROM_BOOTBUTTON_CHECK_ADDRESS + 0xa) = 0x4505; // li a0,1, patch PB11 (option byte is not read correctly) detection
2000021e:	10e79a23          	sh	a4,276(a5) # 20000114 <HandleDataOut+0x98>
	memset((void*)ISPROM_BSS_ADDRESS, 0, ISPROM_BSS_SIZE); // clear .bss
20000222:	56000613          	li	a2,1376
20000226:	4581                	li	a1,0
20000228:	4f050513          	addi	a0,a0,1264 # 200024f0 <_ebss+0x290>
2000022c:	e0002097          	auipc	ra,0xe0002
20000230:	dac080e7          	jalr	-596(ra) # 1fd8 <memset>

	asm( "la gp, " ISPROM_IN_RAM_GLOBALPOINTER "\n"
20000234:	200031b7          	lui	gp,0x20003
20000238:	ce818193          	addi	gp,gp,-792 # 20002ce8 <_ebss+0xa88>
2000023c:	200022b7          	lui	t0,0x20002
20000240:	8c228293          	addi	t0,t0,-1854 # 200018c2 <g_nfca_pcd_send_buf+0x56>
20000244:	34129073          	csrw	mepc,t0
20000248:	30200073          	mret
		 "mret\n");
#elif defined(CH582_CH583)
	asm( "la gp, " ISPROM_GLOBALPOINTER "\n"
		 "j " ISPROM_ENTRYPOINT "\n");
#endif
}
2000024c:	b5e1                	j	20000114 <HandleDataOut+0x98>
void HandleDataOut( struct _USBState * ctx, int endp, uint8_t * data, int len ) {
2000024e:	7179                	addi	sp,sp,-48
20000250:	c65e                	sw	s7,12(sp)
		if (((uint16_t*)gs_usb_data_buf)[0]) {
20000252:	20002bb7          	lui	s7,0x20002
void HandleDataOut( struct _USBState * ctx, int endp, uint8_t * data, int len ) {
20000256:	d422                	sw	s0,40(sp)
20000258:	d226                	sw	s1,36(sp)
2000025a:	ce4e                	sw	s3,28(sp)
2000025c:	cc52                	sw	s4,24(sp)
2000025e:	ca56                	sw	s5,20(sp)
20000260:	c85a                	sw	s6,16(sp)
20000262:	c462                	sw	s8,8(sp)
20000264:	c266                	sw	s9,4(sp)
20000266:	c06a                	sw	s10,0(sp)
20000268:	d606                	sw	ra,44(sp)
2000026a:	d04a                	sw	s2,32(sp)
2000026c:	8b32                	mv	s6,a2
2000026e:	8ab6                	mv	s5,a3
	int i = 0;
20000270:	4401                	li	s0,0
		memcpy((void*)&gs_usb_data_buf[2 + g_usb_rx_received], &data[i], take);
20000272:	f7cb8c13          	addi	s8,s7,-132 # 20001f7c <gs_usb_data_buf>
				g_usb_rx_expected = (uint16_t)g_usb_rx_len_tmp0 | ((uint16_t)g_usb_rx_len_tmp1 << 8);
20000276:	b585                	j	200000d6 <HandleDataOut+0x5a>

20000278 <NFC_IRQHandler>:

	__INTERRUPT
	__HIGH_CODE
	void NFC_IRQHandler(void) {
20000278:	715d                	addi	sp,sp,-80
2000027a:	d43a                	sw	a4,40(sp)
		// Read the interrupt status and write it back to clear the flags.
		uint16_t intf_status = R16_NFC_INTF_STATUS;
2000027c:	4000e737          	lui	a4,0x4000e
	void NFC_IRQHandler(void) {
20000280:	d23e                	sw	a5,36(sp)
		uint16_t intf_status = R16_NFC_INTF_STATUS;
20000282:	00475783          	lhu	a5,4(a4) # 4000e004 <_eusrstack+0x1ffee004>
	void NFC_IRQHandler(void) {
20000286:	de22                	sw	s0,60(sp)
20000288:	d636                	sw	a3,44(sp)
		uint16_t intf_status = R16_NFC_INTF_STATUS;
2000028a:	07c2                	slli	a5,a5,0x10
	void NFC_IRQHandler(void) {
2000028c:	c686                	sw	ra,76(sp)
2000028e:	c496                	sw	t0,72(sp)
20000290:	c29a                	sw	t1,68(sp)
20000292:	c09e                	sw	t2,64(sp)
20000294:	dc2a                	sw	a0,56(sp)
20000296:	da2e                	sw	a1,52(sp)
20000298:	d832                	sw	a2,48(sp)
2000029a:	d042                	sw	a6,32(sp)
2000029c:	ce46                	sw	a7,28(sp)
2000029e:	cc72                	sw	t3,24(sp)
200002a0:	ca76                	sw	t4,20(sp)
200002a2:	c87a                	sw	t5,16(sp)
200002a4:	c67e                	sw	t6,12(sp)
		uint16_t intf_status = R16_NFC_INTF_STATUS;
200002a6:	83c1                	srli	a5,a5,0x10
		R16_NFC_INTF_STATUS = intf_status;
200002a8:	00f71223          	sh	a5,4(a4)

		// --- State 1: TRANSMITTING ---
		if (g_nfca_pcd_comm_status == 1) {
200002ac:	c1e1c703          	lbu	a4,-994(gp) # 2000144a <g_nfca_pcd_comm_status>
200002b0:	4685                	li	a3,1
200002b2:	0ed71463          	bne	a4,a3,2000039a <NFC_IRQHandler+0x122>
		// Check if the TX FIFO is ready for more data (TX FIFO Empty flag)
		if ((intf_status & 8) && (g_nfca_pcd_send_fifo_bytes < g_nfca_pcd_send_total_bytes)) {
200002b6:	0087f713          	andi	a4,a5,8
200002ba:	c329                	beqz	a4,200002fc <NFC_IRQHandler+0x84>
200002bc:	c1c1d603          	lhu	a2,-996(gp) # 20001448 <g_nfca_pcd_send_fifo_bytes>
200002c0:	c1a1d703          	lhu	a4,-998(gp) # 20001446 <g_nfca_pcd_send_total_bytes>
200002c4:	02e67c63          	bgeu	a2,a4,200002fc <NFC_IRQHandler+0x84>
			// Refill the FIFO with up to 5 words
			for (int i = 0; i < 5; i++) {
				R16_NFC_FIFO = gs_nfca_data_buf[g_nfca_pcd_send_fifo_bytes++];
200002c8:	4000e537          	lui	a0,0x4000e
200002cc:	4615                	li	a2,5
200002ce:	55018593          	addi	a1,gp,1360 # 20001d7c <gs_nfca_data_buf>
200002d2:	0531                	addi	a0,a0,12 # 4000e00c <_eusrstack+0x1ffee00c>
200002d4:	c1c1d703          	lhu	a4,-996(gp) # 20001448 <g_nfca_pcd_send_fifo_bytes>
200002d8:	00170893          	addi	a7,a4,1
200002dc:	0706                	slli	a4,a4,0x1
200002de:	972e                	add	a4,a4,a1
200002e0:	00075703          	lhu	a4,0(a4)
200002e4:	c1119e23          	sh	a7,-996(gp) # 20001448 <g_nfca_pcd_send_fifo_bytes>
200002e8:	00e51023          	sh	a4,0(a0)
				if (g_nfca_pcd_send_fifo_bytes >= g_nfca_pcd_send_total_bytes) {
200002ec:	c1c1d883          	lhu	a7,-996(gp) # 20001448 <g_nfca_pcd_send_fifo_bytes>
200002f0:	c1a1d703          	lhu	a4,-998(gp) # 20001446 <g_nfca_pcd_send_total_bytes>
200002f4:	00e8f463          	bgeu	a7,a4,200002fc <NFC_IRQHandler+0x84>
			for (int i = 0; i < 5; i++) {
200002f8:	167d                	addi	a2,a2,-1
200002fa:	fe69                	bnez	a2,200002d4 <NFC_IRQHandler+0x5c>
				}
			}
		}

			// Check if the transmission has completed (TX Complete flag)
			if (intf_status & 1) {
200002fc:	0017f713          	andi	a4,a5,1
20000300:	c725                	beqz	a4,20000368 <NFC_IRQHandler+0xf0>

				// If mode is Transceive, switch to receive mode
				R8_NFC_CMD &= ~(0x01); // Clear the Start TX bit
20000302:	4000e737          	lui	a4,0x4000e
20000306:	00074683          	lbu	a3,0(a4) # 4000e000 <_eusrstack+0x1ffee000>
2000030a:	0fe6f693          	andi	a3,a3,254
2000030e:	00d70023          	sb	a3,0(a4)
				if (g_nfca_pcd_intf_mode) {
20000312:	c181c683          	lbu	a3,-1000(gp) # 20001444 <g_nfca_pcd_intf_mode>
20000316:	cead                	beqz	a3,20000390 <NFC_IRQHandler+0x118>
					g_nfca_pcd_recv_bits = 0;
20000318:	c201a423          	sw	zero,-984(gp) # 20001454 <g_nfca_pcd_recv_bits>
					g_nfca_pcd_recv_word_idx = 0;
2000031c:	c2019223          	sh	zero,-988(gp) # 20001450 <g_nfca_pcd_recv_word_idx>

					// Set RX control register (optionally disables HW CRC checking for
					// ISO14443A short responses like ATQA).
					R8_NFC_STATUS = g_nfca_pcd_rx_status_reg;
20000320:	c071c603          	lbu	a2,-1017(gp) # 20001433 <g_nfca_pcd_rx_status_reg>
20000324:	4000e6b7          	lui	a3,0x4000e
20000328:	0ff67613          	zext.b	a2,a2
2000032c:	00c680a3          	sb	a2,1(a3) # 4000e001 <_eusrstack+0x1ffee001>

					g_nfca_pcd_comm_status = 2; // Change state to Receiving
20000330:	4689                	li	a3,2
20000332:	c0d18f23          	sb	a3,-994(gp) # 2000144a <g_nfca_pcd_comm_status>
					R8_NFC_CMD |= 0x18; // Enable RX
20000336:	00074683          	lbu	a3,0(a4)
2000033a:	0186e693          	ori	a3,a3,24
2000033e:	00d70023          	sb	a3,0(a4)

					// Some CH58x NFC implementations appear to latch RX complete/error flags
					// in the same interrupt as TX complete. If so, consume them immediately
					// to avoid getting stuck in comm_status==2 until the software timeout.
					if (intf_status & 2) {
20000342:	0027f713          	andi	a4,a5,2
20000346:	c719                	beqz	a4,20000354 <NFC_IRQHandler+0xdc>
						nfca_rx_finalize_from_hw();
20000348:	e0001097          	auipc	ra,0xe0001
2000034c:	3c8080e7          	jalr	968(ra) # 1710 <nfca_rx_finalize_from_hw>
					}
				} 
				// If mode is Transmit-only, the operation is complete
				else {
					R8_NFC_STATUS = 0;
					g_nfca_pcd_comm_status = 5; // Status: Success
20000350:	4795                	li	a5,5
20000352:	a809                	j	20000364 <NFC_IRQHandler+0xec>
					else if (intf_status & 0x10) {
20000354:	0107f713          	andi	a4,a5,16
20000358:	cf25                	beqz	a4,200003d0 <NFC_IRQHandler+0x158>
						nfca_rx_finalize_from_hw();
2000035a:	e0001097          	auipc	ra,0xe0001
2000035e:	3b6080e7          	jalr	950(ra) # 1710 <nfca_rx_finalize_from_hw>
						g_nfca_pcd_comm_status = 3; // Status: Parity Error
20000362:	478d                	li	a5,3
				g_nfca_pcd_comm_status = g_nfca_pcd_crcerr_is_fatal ? 4 : 5;
			}
		}
	// --- Any Other State: ERROR ---
	else {
		g_nfca_pcd_comm_status = 6; // Status: General Error
20000364:	c0f18f23          	sb	a5,-994(gp) # 2000144a <g_nfca_pcd_comm_status>
	}
}
20000368:	5472                	lw	s0,60(sp)
2000036a:	40b6                	lw	ra,76(sp)
2000036c:	42a6                	lw	t0,72(sp)
2000036e:	4316                	lw	t1,68(sp)
20000370:	4386                	lw	t2,64(sp)
20000372:	5562                	lw	a0,56(sp)
20000374:	55d2                	lw	a1,52(sp)
20000376:	5642                	lw	a2,48(sp)
20000378:	56b2                	lw	a3,44(sp)
2000037a:	5722                	lw	a4,40(sp)
2000037c:	5792                	lw	a5,36(sp)
2000037e:	5802                	lw	a6,32(sp)
20000380:	48f2                	lw	a7,28(sp)
20000382:	4e62                	lw	t3,24(sp)
20000384:	4ed2                	lw	t4,20(sp)
20000386:	4f42                	lw	t5,16(sp)
20000388:	4fb2                	lw	t6,12(sp)
2000038a:	6161                	addi	sp,sp,80
2000038c:	30200073          	mret
					R8_NFC_STATUS = 0;
20000390:	4000e7b7          	lui	a5,0x4000e
20000394:	000780a3          	sb	zero,1(a5) # 4000e001 <_eusrstack+0x1ffee001>
20000398:	bf65                	j	20000350 <NFC_IRQHandler+0xd8>
		else if (g_nfca_pcd_comm_status == 2) {
2000039a:	4689                	li	a3,2
2000039c:	04d71a63          	bne	a4,a3,200003f0 <NFC_IRQHandler+0x178>
			if (intf_status & 4) { // Note: OV flag is used for Not Empty
200003a0:	0047f713          	andi	a4,a5,4
200003a4:	df59                	beqz	a4,20000342 <NFC_IRQHandler+0xca>
					gs_nfca_data_buf[g_nfca_pcd_recv_word_idx++] = R16_NFC_FIFO;
200003a6:	4000e5b7          	lui	a1,0x4000e
200003aa:	4695                	li	a3,5
200003ac:	05b1                	addi	a1,a1,12 # 4000e00c <_eusrstack+0x1ffee00c>
200003ae:	55018613          	addi	a2,gp,1360 # 20001d7c <gs_nfca_data_buf>
200003b2:	c241d703          	lhu	a4,-988(gp) # 20001450 <g_nfca_pcd_recv_word_idx>
				for (int i = 0; i < 5; i++) {
200003b6:	16fd                	addi	a3,a3,-1
					gs_nfca_data_buf[g_nfca_pcd_recv_word_idx++] = R16_NFC_FIFO;
200003b8:	00170813          	addi	a6,a4,1
200003bc:	c3019223          	sh	a6,-988(gp) # 20001450 <g_nfca_pcd_recv_word_idx>
200003c0:	0005d803          	lhu	a6,0(a1)
200003c4:	0706                	slli	a4,a4,0x1
200003c6:	9732                	add	a4,a4,a2
200003c8:	01071023          	sh	a6,0(a4)
				for (int i = 0; i < 5; i++) {
200003cc:	f2fd                	bnez	a3,200003b2 <NFC_IRQHandler+0x13a>
200003ce:	bf95                	j	20000342 <NFC_IRQHandler+0xca>
			else if (intf_status & 0x20) {
200003d0:	0207f793          	andi	a5,a5,32
200003d4:	dbd1                	beqz	a5,20000368 <NFC_IRQHandler+0xf0>
				g_nfca_pcd_crcerr_seen = 1;
200003d6:	4705                	li	a4,1
200003d8:	c0e18ba3          	sb	a4,-1001(gp) # 20001443 <g_nfca_pcd_crcerr_seen>
				nfca_rx_finalize_from_hw();
200003dc:	e0001097          	auipc	ra,0xe0001
200003e0:	334080e7          	jalr	820(ra) # 1710 <nfca_rx_finalize_from_hw>
				g_nfca_pcd_comm_status = g_nfca_pcd_crcerr_is_fatal ? 4 : 5;
200003e4:	c061c783          	lbu	a5,-1018(gp) # 20001432 <g_nfca_pcd_crcerr_is_fatal>
200003e8:	0017b793          	seqz	a5,a5
200003ec:	0791                	addi	a5,a5,4
200003ee:	bf9d                	j	20000364 <NFC_IRQHandler+0xec>
		g_nfca_pcd_comm_status = 6; // Status: General Error
200003f0:	4799                	li	a5,6
200003f2:	bf8d                	j	20000364 <NFC_IRQHandler+0xec>

200003f4 <nfca_pcd_lpcd_check>:
uint16_t nfca_adc_get_ant_signal(void) {
	uint8_t  sensor, channel, config, tkey_cfg;
	uint16_t adc_data;
	uint32_t adc_data_all;

	tkey_cfg = R8_TKEY_CFG;
200003f4:	400017b7          	lui	a5,0x40001
	sensor = R8_TEM_SENSOR;
200003f8:	40001737          	lui	a4,0x40001
	tkey_cfg = R8_TKEY_CFG;
200003fc:	0577c503          	lbu	a0,87(a5) # 40001057 <_eusrstack+0x1ffe1057>
	channel = R8_ADC_CHANNEL;
20000400:	400016b7          	lui	a3,0x40001
	sensor = R8_TEM_SENSOR;
20000404:	05b74883          	lbu	a7,91(a4) # 4000105b <_eusrstack+0x1ffe105b>
	config = R8_ADC_CFG;
20000408:	40001737          	lui	a4,0x40001
	channel = R8_ADC_CHANNEL;
2000040c:	0586c583          	lbu	a1,88(a3) # 40001058 <_eusrstack+0x1ffe1058>
	config = R8_ADC_CFG;
20000410:	05974803          	lbu	a6,89(a4) # 40001059 <_eusrstack+0x1ffe1059>

	R8_TKEY_CFG &= ~RB_TKEY_PWR_ON;
20000414:	0577c603          	lbu	a2,87(a5)
	adc_data_all = 0;

	for(uint8_t i = 0; i < 2; i++) {
		R8_ADC_CONVERT |= RB_ADC_START;
		{
			uint64_t deadline = now_ticks() + Ticks_from_Ms(10);
20000418:	00098e37          	lui	t3,0x98
				if ((int64_t)(now_ticks() - deadline) > 0) {
					break;
				}
			}
		}
		adc_data_all = adc_data_all + R16_ADC_DATA;
2000041c:	40001337          	lui	t1,0x40001
	R8_TKEY_CFG &= ~RB_TKEY_PWR_ON;
20000420:	0fe67613          	andi	a2,a2,254
20000424:	04c78ba3          	sb	a2,87(a5)
	R8_ADC_CHANNEL = CH_INTE_NFC;
20000428:	47c1                	li	a5,16
2000042a:	04f68c23          	sb	a5,88(a3)
	R8_ADC_CFG = RB_ADC_POWER_ON | RB_ADC_BUF_EN | (SampleFreq_8_or_4 << 6) | (ADC_PGA_1_4 << 4);
2000042e:	04300793          	li	a5,67
20000432:	04f70ca3          	sb	a5,89(a4)
	R8_ADC_CONVERT &= ~RB_ADC_PGA_GAIN2;
20000436:	40001737          	lui	a4,0x40001
2000043a:	05a74783          	lbu	a5,90(a4) # 4000105a <_eusrstack+0x1ffe105a>
2000043e:	05a70713          	addi	a4,a4,90
	tkey_cfg = R8_TKEY_CFG;
20000442:	0ff57513          	zext.b	a0,a0
	R8_ADC_CONVERT &= ~RB_ADC_PGA_GAIN2;
20000446:	0fd7f793          	andi	a5,a5,253
2000044a:	00f70023          	sb	a5,0(a4)
	R8_ADC_CONVERT &= ~(3 << 4);
2000044e:	00074783          	lbu	a5,0(a4)
	sensor = R8_TEM_SENSOR;
20000452:	0ff8f893          	zext.b	a7,a7
	channel = R8_ADC_CHANNEL;
20000456:	0ff5f593          	zext.b	a1,a1
	R8_ADC_CONVERT &= ~(3 << 4);
2000045a:	0cf7f793          	andi	a5,a5,207
2000045e:	00f70023          	sb	a5,0(a4)
	config = R8_ADC_CFG;
20000462:	0ff87813          	zext.b	a6,a6
	R8_ADC_CONVERT &= ~(3 << 4);
20000466:	4e89                	li	t4,2
	adc_data_all = 0;
20000468:	4781                	li	a5,0
	return (uint64_t)funSysTick32();
2000046a:	e000ff37          	lui	t5,0xe000f
			uint64_t deadline = now_ticks() + Ticks_from_Ms(10);
2000046e:	580e0e13          	addi	t3,t3,1408 # 98580 <ch585_grand_finale.c.edbc3f23+0x946e3>
		adc_data_all = adc_data_all + R16_ADC_DATA;
20000472:	05c30313          	addi	t1,t1,92 # 4000105c <_eusrstack+0x1ffe105c>
20000476:	4385                	li	t2,1
		R8_ADC_CONVERT |= RB_ADC_START;
20000478:	00074683          	lbu	a3,0(a4)
2000047c:	0016e693          	ori	a3,a3,1
20000480:	00d70023          	sb	a3,0(a4)
	return (uint64_t)funSysTick32();
20000484:	008f2683          	lw	a3,8(t5) # e000f008 <_eusrstack+0xbffef008>
			uint64_t deadline = now_ticks() + Ticks_from_Ms(10);
20000488:	01c68fb3          	add	t6,a3,t3
2000048c:	00dfb6b3          	sltu	a3,t6,a3
				if ((int64_t)(now_ticks() - deadline) > 0) {
20000490:	40d00633          	neg	a2,a3
			while (R8_ADC_CONVERT & (RB_ADC_START | RB_ADC_EOC_X)) {
20000494:	00074683          	lbu	a3,0(a4)
20000498:	0816f693          	andi	a3,a3,129
2000049c:	ce91                	beqz	a3,200004b8 <nfca_pcd_lpcd_check+0xc4>
	return (uint64_t)funSysTick32();
2000049e:	008f2683          	lw	a3,8(t5)
				if ((int64_t)(now_ticks() - deadline) > 0) {
200004a2:	41f682b3          	sub	t0,a3,t6
200004a6:	0056b6b3          	sltu	a3,a3,t0
200004aa:	40d606b3          	sub	a3,a2,a3
200004ae:	00d04563          	bgtz	a3,200004b8 <nfca_pcd_lpcd_check+0xc4>
200004b2:	f2ed                	bnez	a3,20000494 <nfca_pcd_lpcd_check+0xa0>
200004b4:	fe0280e3          	beqz	t0,20000494 <nfca_pcd_lpcd_check+0xa0>
		adc_data_all = adc_data_all + R16_ADC_DATA;
200004b8:	00035683          	lhu	a3,0(t1)
200004bc:	97b6                	add	a5,a5,a3
	for(uint8_t i = 0; i < 2; i++) {
200004be:	0a7e9263          	bne	t4,t2,20000562 <nfca_pcd_lpcd_check+0x16e>
	}

	adc_data = adc_data_all / 2;
200004c2:	0017d693          	srli	a3,a5,0x1
200004c6:	01069713          	slli	a4,a3,0x10
200004ca:	400017b7          	lui	a5,0x40001
	
	if(channel == CH_INTE_NFC) {
200004ce:	4641                	li	a2,16
	adc_data = adc_data_all / 2;
200004d0:	8341                	srli	a4,a4,0x10
	if(channel == CH_INTE_NFC) {
200004d2:	05878793          	addi	a5,a5,88 # 40001058 <_eusrstack+0x1ffe1058>
200004d6:	08c59863          	bne	a1,a2,20000566 <nfca_pcd_lpcd_check+0x172>
		R8_ADC_CHANNEL = CH_INTE_VBAT;
200004da:	4639                	li	a2,14
200004dc:	00c78023          	sb	a2,0(a5)
	}
	else {
		R8_ADC_CHANNEL = channel;
	}

	R8_TEM_SENSOR = sensor;
200004e0:	400017b7          	lui	a5,0x40001
200004e4:	05178da3          	sb	a7,91(a5) # 4000105b <_eusrstack+0x1ffe105b>
	R8_ADC_CFG = config;
200004e8:	400017b7          	lui	a5,0x40001
200004ec:	05078ca3          	sb	a6,89(a5) # 40001059 <_eusrstack+0x1ffe1059>
	R8_TKEY_CFG = tkey_cfg;
200004f0:	400017b7          	lui	a5,0x40001
200004f4:	04a78ba3          	sb	a0,87(a5) # 40001057 <_eusrstack+0x1ffe1057>
	uint32_t adc_value_diff;
	uint16_t adc_value;
	uint8_t res = 0;

	adc_value = nfca_adc_get_ant_signal();
	if(adc_value > gs_lpcd_adc_base_value) {
200004f8:	c141d783          	lhu	a5,-1004(gp) # 20001440 <gs_lpcd_adc_base_value>
		adc_value_diff = adc_value - gs_lpcd_adc_base_value;
200004fc:	06c2                	slli	a3,a3,0x10
200004fe:	82c1                	srli	a3,a3,0x10
	}
	else {
		adc_value_diff = gs_lpcd_adc_base_value - adc_value;
20000500:	40d78533          	sub	a0,a5,a3
	if(adc_value > gs_lpcd_adc_base_value) {
20000504:	00e7f463          	bgeu	a5,a4,2000050c <nfca_pcd_lpcd_check+0x118>
		adc_value_diff = adc_value - gs_lpcd_adc_base_value;
20000508:	40f68533          	sub	a0,a3,a5
	}
	adc_value_diff = (adc_value_diff * 1000) / gs_lpcd_adc_base_value;
2000050c:	3e800693          	li	a3,1000
20000510:	02d50533          	mul	a0,a0,a3
20000514:	02f55533          	divu	a0,a0,a5

	if((adc_value > gs_lpcd_adc_base_value) && (adc_value_diff > NFCA_PCD_LPCD_THRESHOLD_MAX_LIMIT_PERMIL)) {
20000518:	04e7fa63          	bgeu	a5,a4,2000056c <nfca_pcd_lpcd_check+0x178>
2000051c:	4651                	li	a2,20
2000051e:	04a67763          	bgeu	a2,a0,2000056c <nfca_pcd_lpcd_check+0x178>
		adc_value = ((uint32_t)gs_lpcd_adc_base_value * (1000 + NFCA_PCD_LPCD_THRESHOLD_MAX_LIMIT_PERMIL) / 1000);
20000522:	3fc00713          	li	a4,1020
	uint8_t res = 0;
20000526:	4501                	li	a0,0
		adc_value = ((uint32_t)gs_lpcd_adc_base_value * (1000 + NFCA_PCD_LPCD_THRESHOLD_MAX_LIMIT_PERMIL) / 1000);
20000528:	02e787b3          	mul	a5,a5,a4
2000052c:	02d7d7b3          	divu	a5,a5,a3
20000530:	01079713          	slli	a4,a5,0x10
20000534:	8341                	srli	a4,a4,0x10
	for(uint8_t i = 0; i < 7; i++) {
20000536:	14018793          	addi	a5,gp,320 # 2000196c <gs_lpcd_adc_filter_buf>
2000053a:	00e78893          	addi	a7,a5,14
	uint32_t lpcd_adc_all = 0;
2000053e:	4601                	li	a2,0
20000540:	14018693          	addi	a3,gp,320 # 2000196c <gs_lpcd_adc_filter_buf>
		gs_lpcd_adc_filter_buf[i] = gs_lpcd_adc_filter_buf[i + 1];
20000544:	0027d803          	lhu	a6,2(a5)
	for(uint8_t i = 0; i < 7; i++) {
20000548:	0789                	addi	a5,a5,2
		gs_lpcd_adc_filter_buf[i] = gs_lpcd_adc_filter_buf[i + 1];
2000054a:	ff079f23          	sh	a6,-2(a5)
		lpcd_adc_all = lpcd_adc_all + gs_lpcd_adc_filter_buf[i];
2000054e:	9642                	add	a2,a2,a6
	for(uint8_t i = 0; i < 7; i++) {
20000550:	fef89ae3          	bne	a7,a5,20000544 <nfca_pcd_lpcd_check+0x150>
	gs_lpcd_adc_filter_buf[7] = lpcd_adc;
20000554:	00e69723          	sh	a4,14(a3)
	lpcd_adc_all = lpcd_adc_all + gs_lpcd_adc_filter_buf[7];
20000558:	9732                	add	a4,a4,a2
	lpcd_adc_all = (lpcd_adc_all >> 3);
2000055a:	830d                	srli	a4,a4,0x3
	return (uint16_t)lpcd_adc_all;
2000055c:	c0e19a23          	sh	a4,-1004(gp) # 20001440 <gs_lpcd_adc_base_value>
		}
	}

	gs_lpcd_adc_base_value = nfca_pcd_lpcd_adc_filter_buf_add(adc_value);
	return res;
}
20000560:	8082                	ret
20000562:	4e85                	li	t4,1
20000564:	bf11                	j	20000478 <nfca_pcd_lpcd_check+0x84>
		R8_ADC_CHANNEL = channel;
20000566:	00b78023          	sb	a1,0(a5)
2000056a:	bf9d                	j	200004e0 <nfca_pcd_lpcd_check+0xec>
		if(adc_value_diff >= NFCA_PCD_LPCD_THRESHOLD_PERMIL) {
2000056c:	00553513          	sltiu	a0,a0,5
20000570:	00154513          	xori	a0,a0,1
		if(adc_value < gs_lpcd_adc_base_value) {
20000574:	fcf771e3          	bgeu	a4,a5,20000536 <nfca_pcd_lpcd_check+0x142>
			adc_value = gs_lpcd_adc_base_value - 1;
20000578:	17fd                	addi	a5,a5,-1
2000057a:	01079713          	slli	a4,a5,0x10
2000057e:	8341                	srli	a4,a4,0x10
20000580:	bf5d                	j	20000536 <nfca_pcd_lpcd_check+0x142>

20000582 <ISO14443_CRCA>:

// ISO 14443-3A functions
__HIGH_CODE
uint16_t ISO14443_CRCA(uint8_t *buf, int len) {
20000582:	86aa                	mv	a3,a0
	uint8_t *data = buf;
	uint16_t crc = 0x6363;
	uint8_t ch;
	while (len--) {
20000584:	95aa                	add	a1,a1,a0
	uint16_t crc = 0x6363;
20000586:	6519                	lui	a0,0x6
20000588:	36350513          	addi	a0,a0,867 # 6363 <ch585_grand_finale.c.edbc3f23+0x24c6>
	while (len--) {
2000058c:	00b69363          	bne	a3,a1,20000592 <ISO14443_CRCA+0x10>
		ch = *data++ ^ crc;
		ch = ch ^ (ch << 4);
		crc = (crc >> 8) ^ (ch << 8) ^ (ch << 3) ^ (ch >> 4);
	}
	return crc;
}
20000590:	8082                	ret
		ch = *data++ ^ crc;
20000592:	0006c803          	lbu	a6,0(a3)
20000596:	0685                	addi	a3,a3,1
20000598:	00a84833          	xor	a6,a6,a0
2000059c:	0ff87813          	zext.b	a6,a6
		ch = ch ^ (ch << 4);
200005a0:	00481713          	slli	a4,a6,0x4
200005a4:	0ff77713          	zext.b	a4,a4
		crc = (crc >> 8) ^ (ch << 8) ^ (ch << 3) ^ (ch >> 4);
200005a8:	010747b3          	xor	a5,a4,a6
200005ac:	00879613          	slli	a2,a5,0x8
200005b0:	078e                	slli	a5,a5,0x3
200005b2:	8e3d                	xor	a2,a2,a5
200005b4:	01074733          	xor	a4,a4,a6
200005b8:	00855793          	srli	a5,a0,0x8
200005bc:	8e3d                	xor	a2,a2,a5
200005be:	8311                	srli	a4,a4,0x4
200005c0:	8e39                	xor	a2,a2,a4
200005c2:	01061513          	slli	a0,a2,0x10
200005c6:	8141                	srli	a0,a0,0x10
200005c8:	b7d1                	j	2000058c <ISO14443_CRCA+0xa>

200005ca <ISO14443AAppendCRCA>:

__HIGH_CODE
uint16_t ISO14443AAppendCRCA(void *buf, uint16_t len) {
	uint16_t crc = 0x6363;
	uint8_t *data = (uint8_t *) buf;
200005ca:	86aa                	mv	a3,a0
	uint8_t byte8 = 0;

	while (len--) {
200005cc:	95b6                	add	a1,a1,a3
	uint16_t crc = 0x6363;
200005ce:	6519                	lui	a0,0x6
	while (len--) {
200005d0:	01059893          	slli	a7,a1,0x10
	uint16_t crc = 0x6363;
200005d4:	36350513          	addi	a0,a0,867 # 6363 <ch585_grand_finale.c.edbc3f23+0x24c6>
	while (len--) {
200005d8:	0108d893          	srli	a7,a7,0x10
200005dc:	01069793          	slli	a5,a3,0x10
200005e0:	83c1                	srli	a5,a5,0x10
		byte8 = *data++;
		byte8 ^= crc & 0xFF;
		byte8 ^= byte8 << 4;

		crc = ((((uint16_t)byte8 << 8) | (((crc) >> 8) & 0xFF))
200005e2:	00855813          	srli	a6,a0,0x8
	while (len--) {
200005e6:	00f89763          	bne	a7,a5,200005f4 <ISO14443AAppendCRCA+0x2a>
				^ (uint8_t)(byte8 >> 4)
				^ ((uint16_t)byte8 << 3));
	}

	data[0] = (crc >> 0) & 0x00FF;
200005ea:	00a58023          	sb	a0,0(a1)
	data[1] = (crc >> 8) & 0x00FF;
200005ee:	010580a3          	sb	a6,1(a1)

	return crc;
}
200005f2:	8082                	ret
		byte8 ^= crc & 0xFF;
200005f4:	0006c783          	lbu	a5,0(a3)
		byte8 = *data++;
200005f8:	0685                	addi	a3,a3,1
		byte8 ^= crc & 0xFF;
200005fa:	8fa9                	xor	a5,a5,a0
200005fc:	07e2                	slli	a5,a5,0x18
200005fe:	87e1                	srai	a5,a5,0x18
		byte8 ^= byte8 << 4;
20000600:	00479713          	slli	a4,a5,0x4
20000604:	8fb9                	xor	a5,a5,a4
		crc = ((((uint16_t)byte8 << 8) | (((crc) >> 8) & 0xFF))
20000606:	0ff7f613          	zext.b	a2,a5
				^ (uint8_t)(byte8 >> 4)
2000060a:	8391                	srli	a5,a5,0x4
2000060c:	00f7f713          	andi	a4,a5,15
				^ ((uint16_t)byte8 << 3));
20000610:	00361793          	slli	a5,a2,0x3
		crc = ((((uint16_t)byte8 << 8) | (((crc) >> 8) & 0xFF))
20000614:	0622                	slli	a2,a2,0x8
				^ ((uint16_t)byte8 << 3));
20000616:	8fb9                	xor	a5,a5,a4
		crc = ((((uint16_t)byte8 << 8) | (((crc) >> 8) & 0xFF))
20000618:	01066633          	or	a2,a2,a6
				^ ((uint16_t)byte8 << 3));
2000061c:	8fb1                	xor	a5,a5,a2
		crc = ((((uint16_t)byte8 << 8) | (((crc) >> 8) & 0xFF))
2000061e:	01079513          	slli	a0,a5,0x10
20000622:	8141                	srli	a0,a0,0x10
20000624:	bf65                	j	200005dc <ISO14443AAppendCRCA+0x12>

20000626 <ISO14443ACheckOddParityBit>:

__HIGH_CODE
uint8_t ISO14443ACheckOddParityBit(uint8_t *data, uint8_t *parity, uint16_t len) {
	for (int i = 0; i < len; i++) {
		if ((byteParityBitsTable[data[i]]) != parity[i]) {
20000626:	6709                	lui	a4,0x2
	for (int i = 0; i < len; i++) {
20000628:	4781                	li	a5,0
		if ((byteParityBitsTable[data[i]]) != parity[i]) {
2000062a:	5d470713          	addi	a4,a4,1492 # 25d4 <byteParityBitsTable>
	for (int i = 0; i < len; i++) {
2000062e:	00c7c463          	blt	a5,a2,20000636 <ISO14443ACheckOddParityBit+0x10>
			return 0;
		}
	}
	return 1;
20000632:	4505                	li	a0,1
20000634:	8082                	ret
		if ((byteParityBitsTable[data[i]]) != parity[i]) {
20000636:	00f506b3          	add	a3,a0,a5
2000063a:	0006c803          	lbu	a6,0(a3)
2000063e:	00f586b3          	add	a3,a1,a5
20000642:	0006c683          	lbu	a3,0(a3)
20000646:	983a                	add	a6,a6,a4
20000648:	00084803          	lbu	a6,0(a6)
2000064c:	00d81463          	bne	a6,a3,20000654 <ISO14443ACheckOddParityBit+0x2e>
	for (int i = 0; i < len; i++) {
20000650:	0785                	addi	a5,a5,1
20000652:	bff1                	j	2000062e <ISO14443ACheckOddParityBit+0x8>
			return 0;
20000654:	4501                	li	a0,0
}
20000656:	8082                	ret

20000658 <ISO14443ACalOddParityBit>:

__HIGH_CODE
void ISO14443ACalOddParityBit(uint8_t *data, uint8_t *out_parity, uint16_t len) {
	for (int i = 0; i < len; i++) {
		out_parity[i] = byteParityBitsTable[data[i]];
20000658:	6709                	lui	a4,0x2
	for (int i = 0; i < len; i++) {
2000065a:	4781                	li	a5,0
		out_parity[i] = byteParityBitsTable[data[i]];
2000065c:	5d470713          	addi	a4,a4,1492 # 25d4 <byteParityBitsTable>
	for (int i = 0; i < len; i++) {
20000660:	00c7c363          	blt	a5,a2,20000666 <ISO14443ACalOddParityBit+0xe>
	}
}
20000664:	8082                	ret
		out_parity[i] = byteParityBitsTable[data[i]];
20000666:	00f506b3          	add	a3,a0,a5
2000066a:	0006c683          	lbu	a3,0(a3)
2000066e:	00f58833          	add	a6,a1,a5
	for (int i = 0; i < len; i++) {
20000672:	0785                	addi	a5,a5,1
		out_parity[i] = byteParityBitsTable[data[i]];
20000674:	96ba                	add	a3,a3,a4
20000676:	0006c683          	lbu	a3,0(a3)
2000067a:	00d80023          	sb	a3,0(a6)
	for (int i = 0; i < len; i++) {
2000067e:	b7cd                	j	20000660 <ISO14443ACalOddParityBit+0x8>

20000680 <PcdReq>:

// PCD functions
__HIGH_CODE
	int PcdReq(int cmd, uint8_t *data, int len) {
20000680:	1101                	addi	sp,sp,-32
20000682:	cc22                	sw	s0,24(sp)
20000684:	ce06                	sw	ra,28(sp)
20000686:	ca26                	sw	s1,20(sp)
20000688:	c84a                	sw	s2,16(sp)
2000068a:	c64e                	sw	s3,12(sp)
2000068c:	c452                	sw	s4,8(sp)
		uint16_t res = PCD_COMMUNICATE_ERROR;
		int comm_len = 0;

	if(cmd != CMD_RBLOCK) {
2000068e:	0a000713          	li	a4,160
	int PcdReq(int cmd, uint8_t *data, int len) {
20000692:	842a                	mv	s0,a0
	if(cmd != CMD_RBLOCK) {
20000694:	10e50563          	beq	a0,a4,2000079e <PcdReq+0x11e>
		// clear chaining buffers
		for(int i = 0; i < NFCA_PCD_CHAINING_BUFFERS; i++) {
			g_nfca_pcd_recv_buf_chain[i * sizeof(g_nfca_pcd_recv_buf)] = 0;
20000698:	c4018713          	addi	a4,gp,-960 # 2000146c <g_nfca_pcd_recv_buf_chain>
2000069c:	00070023          	sb	zero,0(a4)
200006a0:	10070023          	sb	zero,256(a4)
200006a4:	20070023          	sb	zero,512(a4)
200006a8:	30070023          	sb	zero,768(a4)
		}
	}

			switch(cmd) {
200006ac:	05000713          	li	a4,80
200006b0:	12e50963          	beq	a0,a4,200007e2 <PcdReq+0x162>
200006b4:	87b2                	mv	a5,a2
200006b6:	04a74f63          	blt	a4,a0,20000714 <PcdReq+0x94>
200006ba:	02600713          	li	a4,38
200006be:	10e50863          	beq	a0,a4,200007ce <PcdReq+0x14e>
200006c2:	03000713          	li	a4,48
200006c6:	22e50c63          	beq	a0,a4,200008fe <PcdReq+0x27e>
200006ca:	4709                	li	a4,2
200006cc:	1ce50563          	beq	a0,a4,20000896 <PcdReq+0x216>
200006d0:	4481                	li	s1,0
200006d2:	a08d                	j	20000734 <PcdReq+0xb4>
200006d4:	4755                	li	a4,21
200006d6:	00d75733          	srl	a4,a4,a3
200006da:	8b05                	andi	a4,a4,1
200006dc:	db75                	beqz	a4,200006d0 <PcdReq+0x50>
	case CMD_REQA:
	case CMD_WUPA:
		g_nfca_pcd_send_buf[0] = cmd;
200006de:	0ff47693          	zext.b	a3,s0
200006e2:	04018713          	addi	a4,gp,64 # 2000186c <g_nfca_pcd_send_buf>
		nfca_pcd_wait_ms(5);
		break;
	case CMD_ANTICOLL1:
	case CMD_ANTICOLL2:
	case CMD_ANTICOLL3:
		if(len == 2) {
200006e6:	4509                	li	a0,2
			g_nfca_pcd_send_buf[0] = cmd;
200006e8:	00d70023          	sb	a3,0(a4)
		if(len == 2) {
200006ec:	12a79163          	bne	a5,a0,2000080e <PcdReq+0x18e>
			g_nfca_pcd_send_buf[1] = 0x20;
200006f0:	02000793          	li	a5,32
			comm_len = len *8;

			ISO14443ACalOddParityBit(g_nfca_pcd_send_buf, g_nfca_parity_buf, len);
200006f4:	04018513          	addi	a0,gp,64 # 2000186c <g_nfca_pcd_send_buf>
200006f8:	15018593          	addi	a1,gp,336 # 2000197c <g_nfca_parity_buf>
			g_nfca_pcd_send_buf[1] = 0x20;
200006fc:	00f700a3          	sb	a5,1(a4)
			ISO14443ACalOddParityBit(g_nfca_pcd_send_buf, g_nfca_parity_buf, len);
20000700:	3fa1                	jal	20000658 <ISO14443ACalOddParityBit>
	R16_NFC_TMR = (uint16_t)ticks;
20000702:	6711                	lui	a4,0x4
20000704:	4000e7b7          	lui	a5,0x4000e
20000708:	36270713          	addi	a4,a4,866 # 4362 <ch585_grand_finale.c.edbc3f23+0x4c5>
2000070c:	00e79823          	sh	a4,16(a5) # 4000e010 <_eusrstack+0x1ffee010>
			comm_len = len *8;
20000710:	44c1                	li	s1,16
}
20000712:	a00d                	j	20000734 <PcdReq+0xb4>
			switch(cmd) {
20000714:	0e000713          	li	a4,224
20000718:	14e50963          	beq	a0,a4,2000086a <PcdReq+0x1ea>
2000071c:	04a74863          	blt	a4,a0,2000076c <PcdReq+0xec>
20000720:	05200713          	li	a4,82
20000724:	0ae50563          	beq	a0,a4,200007ce <PcdReq+0x14e>
20000728:	f6d50693          	addi	a3,a0,-147
2000072c:	4711                	li	a4,4
2000072e:	4481                	li	s1,0
20000730:	fad772e3          	bgeu	a4,a3,200006d4 <PcdReq+0x54>
			break;
			}

		// Configure whether HW CRC checking is expected/desired for this exchange.
		// ATQA and anticollision responses do not include CRC_A.
		g_nfca_pcd_rx_crc_enable = 1;
20000734:	4785                	li	a5,1
20000736:	c0f18223          	sb	a5,-1020(gp) # 20001430 <_highcode_vma_end>
		g_nfca_pcd_crcerr_is_fatal = 1;
2000073a:	c0f18323          	sb	a5,-1018(gp) # 20001432 <g_nfca_pcd_crcerr_is_fatal>
		if ((cmd == CMD_REQA) || (cmd == CMD_WUPA)) {
2000073e:	05200793          	li	a5,82
20000742:	1ef40c63          	beq	s0,a5,2000093a <PcdReq+0x2ba>
20000746:	1c87c963          	blt	a5,s0,20000918 <PcdReq+0x298>
2000074a:	02600793          	li	a5,38
2000074e:	1ef40663          	beq	s0,a5,2000093a <PcdReq+0x2ba>
		else if (((cmd == CMD_ANTICOLL1) || (cmd == CMD_ANTICOLL2) || (cmd == CMD_ANTICOLL3)) && (g_nfca_pcd_send_buf[1] == 0x20)) {
			g_nfca_pcd_rx_crc_enable = 0;
			g_nfca_pcd_crcerr_is_fatal = 0;
		}

		if (nfca_pcd_comm(comm_len, NFCA_PCD_REC_MODE_NORMAL, 0) == 0) {
20000752:	01049513          	slli	a0,s1,0x10
20000756:	8141                	srli	a0,a0,0x10
	if (data_bits_num <= 3) {
20000758:	478d                	li	a5,3
2000075a:	1ea7e563          	bltu	a5,a0,20000944 <PcdReq+0x2c4>
		g_nfca_pcd_intf_mode = 0;
2000075e:	c0018c23          	sb	zero,-1000(gp) # 20001444 <g_nfca_pcd_intf_mode>
		g_nfca_pcd_comm_status = 6; // Status: Error/Invalid Param
20000762:	4719                	li	a4,6
20000764:	c0e18f23          	sb	a4,-994(gp) # 2000144a <g_nfca_pcd_comm_status>
		uint16_t res = PCD_COMMUNICATE_ERROR;
20000768:	4785                	li	a5,1
2000076a:	a4d1                	j	20000a2e <PcdReq+0x3ae>
			switch(cmd) {
2000076c:	0f200793          	li	a5,242
20000770:	f6f510e3          	bne	a0,a5,200006d0 <PcdReq+0x50>
		g_nfca_pcd_send_buf[0] = data[0];
20000774:	0005c703          	lbu	a4,0(a1)
20000778:	04018793          	addi	a5,gp,64 # 2000186c <g_nfca_pcd_send_buf>
2000077c:	00e78023          	sb	a4,0(a5)
		g_nfca_pcd_send_buf[1] = data[1];
20000780:	0015c703          	lbu	a4,1(a1)
		ISO14443AAppendCRCA(g_nfca_pcd_send_buf, len);
20000784:	04018513          	addi	a0,gp,64 # 2000186c <g_nfca_pcd_send_buf>
20000788:	4589                	li	a1,2
		g_nfca_pcd_send_buf[1] = data[1];
2000078a:	00e780a3          	sb	a4,1(a5)
		ISO14443AAppendCRCA(g_nfca_pcd_send_buf, len);
2000078e:	3d35                	jal	200005ca <ISO14443AAppendCRCA>
		ISO14443ACalOddParityBit(g_nfca_pcd_send_buf, g_nfca_parity_buf, len +2);
20000790:	4611                	li	a2,4
20000792:	15018593          	addi	a1,gp,336 # 2000197c <g_nfca_parity_buf>
20000796:	04018513          	addi	a0,gp,64 # 2000186c <g_nfca_pcd_send_buf>
2000079a:	3d7d                	jal	20000658 <ISO14443ACalOddParityBit>
		break;
2000079c:	a0b5                	j	20000808 <PcdReq+0x188>
			g_nfca_pcd_send_buf[0] = cmd + apdu_iblock_number;
2000079e:	c051c703          	lbu	a4,-1019(gp) # 20001431 <apdu_iblock_number>
			ISO14443AAppendCRCA(g_nfca_pcd_send_buf, len);
200007a2:	4585                	li	a1,1
			g_nfca_pcd_send_buf[0] = cmd + apdu_iblock_number;
200007a4:	fa070713          	addi	a4,a4,-96
200007a8:	04e18023          	sb	a4,64(gp) # 2000186c <g_nfca_pcd_send_buf>
			apdu_iblock_number ^= 1;
200007ac:	c051c703          	lbu	a4,-1019(gp) # 20001431 <apdu_iblock_number>
			ISO14443AAppendCRCA(g_nfca_pcd_send_buf, len);
200007b0:	04018513          	addi	a0,gp,64 # 2000186c <g_nfca_pcd_send_buf>
			apdu_iblock_number ^= 1;
200007b4:	00174713          	xori	a4,a4,1
200007b8:	c0e182a3          	sb	a4,-1019(gp) # 20001431 <apdu_iblock_number>
			ISO14443AAppendCRCA(g_nfca_pcd_send_buf, len);
200007bc:	3539                	jal	200005ca <ISO14443AAppendCRCA>
			ISO14443ACalOddParityBit(g_nfca_pcd_send_buf, g_nfca_parity_buf, len +2);
200007be:	04018513          	addi	a0,gp,64 # 2000186c <g_nfca_pcd_send_buf>
200007c2:	460d                	li	a2,3
200007c4:	15018593          	addi	a1,gp,336 # 2000197c <g_nfca_parity_buf>
200007c8:	3d41                	jal	20000658 <ISO14443ACalOddParityBit>
			comm_len = (len +2) * 8;
200007ca:	44e1                	li	s1,24
			break;
200007cc:	b7a5                	j	20000734 <PcdReq+0xb4>
		g_nfca_pcd_send_buf[0] = cmd;
200007ce:	04818023          	sb	s0,64(gp) # 2000186c <g_nfca_pcd_send_buf>
	R16_NFC_TMR = (uint16_t)ticks;
200007d2:	15900713          	li	a4,345
200007d6:	4000e7b7          	lui	a5,0x4000e
200007da:	00e79823          	sh	a4,16(a5) # 4000e010 <_eusrstack+0x1ffee010>
		comm_len = 7;
200007de:	449d                	li	s1,7
		break;
200007e0:	bf91                	j	20000734 <PcdReq+0xb4>
		g_nfca_pcd_send_buf[0] = CMD_HALT;
200007e2:	04a19023          	sh	a0,64(gp) # 2000186c <g_nfca_pcd_send_buf>
		ISO14443AAppendCRCA(g_nfca_pcd_send_buf, len);
200007e6:	4589                	li	a1,2
200007e8:	04018513          	addi	a0,gp,64 # 2000186c <g_nfca_pcd_send_buf>
200007ec:	3bf9                	jal	200005ca <ISO14443AAppendCRCA>
		ISO14443ACalOddParityBit(g_nfca_pcd_send_buf, g_nfca_parity_buf, len +2);	
200007ee:	4611                	li	a2,4
200007f0:	15018593          	addi	a1,gp,336 # 2000197c <g_nfca_parity_buf>
200007f4:	04018513          	addi	a0,gp,64 # 2000186c <g_nfca_pcd_send_buf>
200007f8:	3585                	jal	20000658 <ISO14443ACalOddParityBit>
	R16_NFC_TMR = (uint16_t)ticks;
200007fa:	6709                	lui	a4,0x2
200007fc:	4000e7b7          	lui	a5,0x4000e
20000800:	1b170713          	addi	a4,a4,433 # 21b1 <SystemInit+0x25>
20000804:	00e79823          	sh	a4,16(a5) # 4000e010 <_eusrstack+0x1ffee010>
		comm_len = (len +2) * 8;
20000808:	02000493          	li	s1,32
2000080c:	b725                	j	20000734 <PcdReq+0xb4>
			g_nfca_pcd_send_buf[1] = 0x70;
2000080e:	07000793          	li	a5,112
20000812:	00f700a3          	sb	a5,1(a4)
			g_nfca_pcd_send_buf[6] = 0;
20000816:	00070323          	sb	zero,6(a4)
			for(int i = 0; i < 4; i++) {
2000081a:	04018613          	addi	a2,gp,64 # 2000186c <g_nfca_pcd_send_buf>
2000081e:	4781                	li	a5,0
20000820:	4511                	li	a0,4
				g_nfca_pcd_send_buf[i + 2] = data[i];
20000822:	00f586b3          	add	a3,a1,a5
20000826:	0006c683          	lbu	a3,0(a3)
			for(int i = 0; i < 4; i++) {
2000082a:	0785                	addi	a5,a5,1
2000082c:	0605                	addi	a2,a2,1
				g_nfca_pcd_send_buf[i + 2] = data[i];
2000082e:	00d600a3          	sb	a3,1(a2)
				g_nfca_pcd_send_buf[6] ^= data[i];
20000832:	00674803          	lbu	a6,6(a4)
20000836:	0106c6b3          	xor	a3,a3,a6
2000083a:	00d70323          	sb	a3,6(a4)
			for(int i = 0; i < 4; i++) {
2000083e:	fea792e3          	bne	a5,a0,20000822 <PcdReq+0x1a2>
			ISO14443AAppendCRCA(g_nfca_pcd_send_buf, len);
20000842:	459d                	li	a1,7
20000844:	04018513          	addi	a0,gp,64 # 2000186c <g_nfca_pcd_send_buf>
20000848:	3349                	jal	200005ca <ISO14443AAppendCRCA>
			ISO14443ACalOddParityBit(g_nfca_pcd_send_buf, g_nfca_parity_buf, len +2);
2000084a:	04018513          	addi	a0,gp,64 # 2000186c <g_nfca_pcd_send_buf>
2000084e:	4625                	li	a2,9
20000850:	15018593          	addi	a1,gp,336 # 2000197c <g_nfca_parity_buf>
20000854:	3511                	jal	20000658 <ISO14443ACalOddParityBit>
	R16_NFC_TMR = (uint16_t)ticks;
20000856:	6711                	lui	a4,0x4
20000858:	4000e7b7          	lui	a5,0x4000e
2000085c:	36270713          	addi	a4,a4,866 # 4362 <ch585_grand_finale.c.edbc3f23+0x4c5>
20000860:	00e79823          	sh	a4,16(a5) # 4000e010 <_eusrstack+0x1ffee010>
			comm_len = (len +2) * 8;
20000864:	04800493          	li	s1,72
}
20000868:	b5f1                	j	20000734 <PcdReq+0xb4>
		g_nfca_pcd_send_buf[0] = CMD_RATS;
2000086a:	77e1                	lui	a5,0xffff8
2000086c:	0e078793          	addi	a5,a5,224 # ffff80e0 <_eusrstack+0xdffd80e0>
20000870:	04f19023          	sh	a5,64(gp) # 2000186c <g_nfca_pcd_send_buf>
		apdu_iblock_number = 0x02; // we'll start with apdu's in i-blocks after this
20000874:	4709                	li	a4,2
20000876:	c0e182a3          	sb	a4,-1019(gp) # 20001431 <apdu_iblock_number>
		ISO14443AAppendCRCA(g_nfca_pcd_send_buf, len);
2000087a:	4589                	li	a1,2
2000087c:	04018513          	addi	a0,gp,64 # 2000186c <g_nfca_pcd_send_buf>
20000880:	33a9                	jal	200005ca <ISO14443AAppendCRCA>
		ISO14443ACalOddParityBit(g_nfca_pcd_send_buf, g_nfca_parity_buf, len +2);
20000882:	4611                	li	a2,4
20000884:	15018593          	addi	a1,gp,336 # 2000197c <g_nfca_parity_buf>
20000888:	04018513          	addi	a0,gp,64 # 2000186c <g_nfca_pcd_send_buf>
2000088c:	33f1                	jal	20000658 <ISO14443ACalOddParityBit>
	R16_NFC_TMR = (uint16_t)ticks;
2000088e:	4000e7b7          	lui	a5,0x4000e
20000892:	577d                	li	a4,-1
20000894:	bf85                	j	20000804 <PcdReq+0x184>
		g_nfca_pcd_send_buf[0] = apdu_iblock_number;
20000896:	c051c683          	lbu	a3,-1019(gp) # 20001431 <apdu_iblock_number>
2000089a:	04d18023          	sb	a3,64(gp) # 2000186c <g_nfca_pcd_send_buf>
		apdu_iblock_number ^= 1;
2000089e:	c051c683          	lbu	a3,-1019(gp) # 20001431 <apdu_iblock_number>
200008a2:	0016c693          	xori	a3,a3,1
200008a6:	c0d182a3          	sb	a3,-1019(gp) # 20001431 <apdu_iblock_number>
		for(int i = 0; i < len; i++) {
200008aa:	4701                	li	a4,0
200008ac:	04018693          	addi	a3,gp,64 # 2000186c <g_nfca_pcd_send_buf>
200008b0:	02f74d63          	blt	a4,a5,200008ea <PcdReq+0x26a>
		comm_len = (len +2) * 8;
200008b4:	00378493          	addi	s1,a5,3 # 4000e003 <_eusrstack+0x1ffee003>
		len++;
200008b8:	0785                	addi	a5,a5,1
		ISO14443AAppendCRCA(g_nfca_pcd_send_buf, len);
200008ba:	01079913          	slli	s2,a5,0x10
200008be:	01095913          	srli	s2,s2,0x10
200008c2:	85ca                	mv	a1,s2
200008c4:	04018513          	addi	a0,gp,64 # 2000186c <g_nfca_pcd_send_buf>
200008c8:	3309                	jal	200005ca <ISO14443AAppendCRCA>
		ISO14443ACalOddParityBit(g_nfca_pcd_send_buf, g_nfca_parity_buf, len +2);
200008ca:	00290613          	addi	a2,s2,2
200008ce:	0642                	slli	a2,a2,0x10
200008d0:	8241                	srli	a2,a2,0x10
200008d2:	15018593          	addi	a1,gp,336 # 2000197c <g_nfca_parity_buf>
200008d6:	04018513          	addi	a0,gp,64 # 2000186c <g_nfca_pcd_send_buf>
200008da:	3bbd                	jal	20000658 <ISO14443ACalOddParityBit>
	R16_NFC_TMR = (uint16_t)ticks;
200008dc:	4000e7b7          	lui	a5,0x4000e
200008e0:	577d                	li	a4,-1
		comm_len = (len +2) * 8;
200008e2:	048e                	slli	s1,s1,0x3
	R16_NFC_TMR = (uint16_t)ticks;
200008e4:	00e79823          	sh	a4,16(a5) # 4000e010 <_eusrstack+0x1ffee010>
}
200008e8:	b5b1                	j	20000734 <PcdReq+0xb4>
			g_nfca_pcd_send_buf[i +1] = data[i];
200008ea:	0705                	addi	a4,a4,1
200008ec:	00e58633          	add	a2,a1,a4
200008f0:	fff64503          	lbu	a0,-1(a2)
200008f4:	00e68633          	add	a2,a3,a4
200008f8:	00a60023          	sb	a0,0(a2)
		for(int i = 0; i < len; i++) {
200008fc:	bf55                	j	200008b0 <PcdReq+0x230>
			g_nfca_pcd_send_buf[0] = CMD_T2T_READ;
200008fe:	04a18023          	sb	a0,64(gp) # 2000186c <g_nfca_pcd_send_buf>
			g_nfca_pcd_send_buf[1] = (data && len >= 1) ? data[0] : 0;
20000902:	04018693          	addi	a3,gp,64 # 2000186c <g_nfca_pcd_send_buf>
20000906:	4701                	li	a4,0
20000908:	c589                	beqz	a1,20000912 <PcdReq+0x292>
2000090a:	00c05463          	blez	a2,20000912 <PcdReq+0x292>
2000090e:	0005c703          	lbu	a4,0(a1)
20000912:	00e680a3          	sb	a4,1(a3)
			ISO14443AAppendCRCA(g_nfca_pcd_send_buf, len);
20000916:	b795                	j	2000087a <PcdReq+0x1fa>
20000918:	f6d40613          	addi	a2,s0,-147
2000091c:	4791                	li	a5,4
2000091e:	e2c7eae3          	bltu	a5,a2,20000752 <PcdReq+0xd2>
20000922:	47d5                	li	a5,21
20000924:	00c7d7b3          	srl	a5,a5,a2
20000928:	8b85                	andi	a5,a5,1
2000092a:	e20784e3          	beqz	a5,20000752 <PcdReq+0xd2>
		else if (((cmd == CMD_ANTICOLL1) || (cmd == CMD_ANTICOLL2) || (cmd == CMD_ANTICOLL3)) && (g_nfca_pcd_send_buf[1] == 0x20)) {
2000092e:	0411c603          	lbu	a2,65(gp) # 2000186d <g_nfca_pcd_send_buf+0x1>
20000932:	02000793          	li	a5,32
20000936:	e0f61ee3          	bne	a2,a5,20000752 <PcdReq+0xd2>
			g_nfca_pcd_rx_crc_enable = 0;
2000093a:	c0018223          	sb	zero,-1020(gp) # 20001430 <_highcode_vma_end>
			g_nfca_pcd_crcerr_is_fatal = 0;
2000093e:	c0018323          	sb	zero,-1018(gp) # 20001432 <g_nfca_pcd_crcerr_is_fatal>
20000942:	bd01                	j	20000752 <PcdReq+0xd2>
20000944:	e0001097          	auipc	ra,0xe0001
20000948:	f4a080e7          	jalr	-182(ra) # 188e <nfca_pcd_comm.part.0.constprop.0>
		if (nfca_pcd_comm(comm_len, NFCA_PCD_REC_MODE_NORMAL, 0) == 0) {
2000094c:	e0051ee3          	bnez	a0,20000768 <PcdReq+0xe8>
			if(nfca_pcd_wait_comm_end() == NFCA_PCD_CONTROLLER_STATE_DONE) {
20000950:	e0001097          	auipc	ra,0xe0001
20000954:	e5e080e7          	jalr	-418(ra) # 17ae <nfca_pcd_wait_comm_end>
20000958:	4795                	li	a5,5
2000095a:	e0f517e3          	bne	a0,a5,20000768 <PcdReq+0xe8>
				if (g_nfca_pcd_recv_bits % 9 == 0) {
2000095e:	c281a483          	lw	s1,-984(gp) # 20001454 <g_nfca_pcd_recv_bits>
20000962:	49a5                	li	s3,9
					int nbytes = g_nfca_pcd_recv_bits /9;
					if (ISO14443ACheckOddParityBit(g_nfca_pcd_recv_buf, g_nfca_parity_buf, nbytes)) {
						if ((cmd == CMD_REQA) || (cmd == CMD_WUPA)) {
							// ATQA is exactly 2 bytes (no CRC_A). Guard against treating
							// empty/partial frames as a successful poll.
							res = (nbytes >= 2) ? PCD_NO_ERROR : PCD_FRAME_ERROR;
20000964:	10100793          	li	a5,257
				if (g_nfca_pcd_recv_bits % 9 == 0) {
20000968:	0334f4b3          	remu	s1,s1,s3
2000096c:	e0e9                	bnez	s1,20000a2e <PcdReq+0x3ae>
					int nbytes = g_nfca_pcd_recv_bits /9;
2000096e:	c281aa03          	lw	s4,-984(gp) # 20001454 <g_nfca_pcd_recv_bits>
20000972:	033a59b3          	divu	s3,s4,s3
					if (ISO14443ACheckOddParityBit(g_nfca_pcd_recv_buf, g_nfca_parity_buf, nbytes)) {
20000976:	15018593          	addi	a1,gp,336 # 2000197c <g_nfca_parity_buf>
2000097a:	25018513          	addi	a0,gp,592 # 20001a7c <g_nfca_pcd_recv_buf>
2000097e:	01099613          	slli	a2,s3,0x10
20000982:	8241                	srli	a2,a2,0x10
20000984:	314d                	jal	20000626 <ISO14443ACheckOddParityBit>
					else {
						res = PCD_CRC_ERROR;
					}
				}
				else {
					res = PCD_ODD_PARITY_ERROR;
20000986:	4789                	li	a5,2
					if (ISO14443ACheckOddParityBit(g_nfca_pcd_recv_buf, g_nfca_parity_buf, nbytes)) {
20000988:	c15d                	beqz	a0,20000a2e <PcdReq+0x3ae>
						if ((cmd == CMD_REQA) || (cmd == CMD_WUPA)) {
2000098a:	05200793          	li	a5,82
2000098e:	08f40b63          	beq	s0,a5,20000a24 <PcdReq+0x3a4>
20000992:	0287cf63          	blt	a5,s0,200009d0 <PcdReq+0x350>
20000996:	02600793          	li	a5,38
2000099a:	08f40563          	beq	s0,a5,20000a24 <PcdReq+0x3a4>
						else if (ISO14443_CRCA(g_nfca_pcd_recv_buf, nbytes) == 0) {
2000099e:	85ce                	mv	a1,s3
200009a0:	25018513          	addi	a0,gp,592 # 20001a7c <g_nfca_pcd_recv_buf>
200009a4:	3ef9                	jal	20000582 <ISO14443_CRCA>
						res = PCD_CRC_ERROR;
200009a6:	10300793          	li	a5,259
						else if (ISO14443_CRCA(g_nfca_pcd_recv_buf, nbytes) == 0) {
200009aa:	e151                	bnez	a0,20000a2e <PcdReq+0x3ae>
		}
	}

	// handle sblocks and rblocks
	if(res == PCD_NO_ERROR) {
		if(g_nfca_pcd_recv_buf[0] == CMD_WTX) {
200009ac:	2501c783          	lbu	a5,592(gp) # 20001a7c <g_nfca_pcd_recv_buf>
200009b0:	0f200713          	li	a4,242
200009b4:	25018613          	addi	a2,gp,592 # 20001a7c <g_nfca_pcd_recv_buf>
200009b8:	08e79463          	bne	a5,a4,20000a40 <PcdReq+0x3c0>
			res = PcdReq(CMD_WTX, g_nfca_pcd_recv_buf, 2);
200009bc:	4609                	li	a2,2
200009be:	25018593          	addi	a1,gp,592 # 20001a7c <g_nfca_pcd_recv_buf>
200009c2:	0f200513          	li	a0,242
						g_nfca_pcd_recv_buf_chain[(i * sizeof(g_nfca_pcd_recv_buf)) +j] = g_nfca_pcd_recv_buf[j];
					}
					break;
				}
			}
			res = PcdReq(CMD_RBLOCK, 0, 0); // we are ready, request the next part of the chained frame
200009c6:	396d                	jal	20000680 <PcdReq>
200009c8:	01051793          	slli	a5,a0,0x10
200009cc:	83c1                	srli	a5,a5,0x10
200009ce:	a085                	j	20000a2e <PcdReq+0x3ae>
200009d0:	f6d40713          	addi	a4,s0,-147
200009d4:	4791                	li	a5,4
200009d6:	fce7e4e3          	bltu	a5,a4,2000099e <PcdReq+0x31e>
200009da:	47d5                	li	a5,21
200009dc:	00e7d7b3          	srl	a5,a5,a4
200009e0:	8b85                	andi	a5,a5,1
200009e2:	dfd5                	beqz	a5,2000099e <PcdReq+0x31e>
						else if (((cmd == CMD_ANTICOLL1) || (cmd == CMD_ANTICOLL2) || (cmd == CMD_ANTICOLL3)) && g_nfca_pcd_send_buf[1] == 0x20) {
200009e4:	0411c703          	lbu	a4,65(gp) # 2000186d <g_nfca_pcd_send_buf+0x1>
200009e8:	02000793          	li	a5,32
200009ec:	faf719e3          	bne	a4,a5,2000099e <PcdReq+0x31e>
							if (nbytes < 5) {
200009f0:	02c00713          	li	a4,44
							res = (nbytes >= 2) ? PCD_NO_ERROR : PCD_FRAME_ERROR;
200009f4:	10100793          	li	a5,257
							if (nbytes < 5) {
200009f8:	03477b63          	bgeu	a4,s4,20000a2e <PcdReq+0x3ae>
							else if (ISO14443A_CHECK_BCC(g_nfca_pcd_recv_buf)) {
200009fc:	25018713          	addi	a4,gp,592 # 20001a7c <g_nfca_pcd_recv_buf>
20000a00:	00174683          	lbu	a3,1(a4)
20000a04:	00074783          	lbu	a5,0(a4)
20000a08:	8fb5                	xor	a5,a5,a3
20000a0a:	00274683          	lbu	a3,2(a4)
20000a0e:	8fb5                	xor	a5,a5,a3
20000a10:	00374683          	lbu	a3,3(a4)
20000a14:	00474703          	lbu	a4,4(a4)
20000a18:	8fb5                	xor	a5,a5,a3
20000a1a:	f8f709e3          	beq	a4,a5,200009ac <PcdReq+0x32c>
								res = PCD_BCC_ERROR;
20000a1e:	10200793          	li	a5,258
20000a22:	a031                	j	20000a2e <PcdReq+0x3ae>
							res = (nbytes >= 2) ? PCD_NO_ERROR : PCD_FRAME_ERROR;
20000a24:	47c5                	li	a5,17
20000a26:	f947e3e3          	bltu	a5,s4,200009ac <PcdReq+0x32c>
20000a2a:	10100793          	li	a5,257
		}
	}

	return res;
}
20000a2e:	40f2                	lw	ra,28(sp)
20000a30:	4462                	lw	s0,24(sp)
20000a32:	44d2                	lw	s1,20(sp)
20000a34:	4942                	lw	s2,16(sp)
20000a36:	49b2                	lw	s3,12(sp)
20000a38:	4a22                	lw	s4,8(sp)
20000a3a:	853e                	mv	a0,a5
20000a3c:	6105                	addi	sp,sp,32
20000a3e:	8082                	ret
		else if ((g_nfca_pcd_recv_buf[0] & 0x10) && ((cmd == CMD_IBLOCK) || (cmd == CMD_RBLOCK))) {
20000a40:	0107f713          	andi	a4,a5,16
20000a44:	4781                	li	a5,0
20000a46:	d765                	beqz	a4,20000a2e <PcdReq+0x3ae>
20000a48:	4709                	li	a4,2
20000a4a:	00e40663          	beq	s0,a4,20000a56 <PcdReq+0x3d6>
20000a4e:	0a000713          	li	a4,160
20000a52:	fce41ee3          	bne	s0,a4,20000a2e <PcdReq+0x3ae>
				if(g_nfca_pcd_recv_buf_chain[i * sizeof(g_nfca_pcd_recv_buf)] == 0) {
20000a56:	c401c703          	lbu	a4,-960(gp) # 2000146c <g_nfca_pcd_recv_buf_chain>
20000a5a:	c4018793          	addi	a5,gp,-960 # 2000146c <g_nfca_pcd_recv_buf_chain>
20000a5e:	c31d                	beqz	a4,20000a84 <PcdReq+0x404>
20000a60:	1007c703          	lbu	a4,256(a5)
20000a64:	cf11                	beqz	a4,20000a80 <PcdReq+0x400>
20000a66:	2007c703          	lbu	a4,512(a5)
20000a6a:	cf0d                	beqz	a4,20000aa4 <PcdReq+0x424>
20000a6c:	3007c703          	lbu	a4,768(a5)
20000a70:	30000493          	li	s1,768
20000a74:	cb01                	beqz	a4,20000a84 <PcdReq+0x404>
			res = PcdReq(CMD_RBLOCK, 0, 0); // we are ready, request the next part of the chained frame
20000a76:	4601                	li	a2,0
20000a78:	4581                	li	a1,0
20000a7a:	0a000513          	li	a0,160
20000a7e:	b7a1                	j	200009c6 <PcdReq+0x346>
				if(g_nfca_pcd_recv_buf_chain[i * sizeof(g_nfca_pcd_recv_buf)] == 0) {
20000a80:	10000493          	li	s1,256
					for(int j = 0; j < sizeof(g_nfca_pcd_recv_buf); j++) {
20000a84:	4701                	li	a4,0
20000a86:	10000593          	li	a1,256
						g_nfca_pcd_recv_buf_chain[(i * sizeof(g_nfca_pcd_recv_buf)) +j] = g_nfca_pcd_recv_buf[j];
20000a8a:	00e60533          	add	a0,a2,a4
20000a8e:	00054503          	lbu	a0,0(a0)
20000a92:	009706b3          	add	a3,a4,s1
20000a96:	96be                	add	a3,a3,a5
20000a98:	00a68023          	sb	a0,0(a3)
					for(int j = 0; j < sizeof(g_nfca_pcd_recv_buf); j++) {
20000a9c:	0705                	addi	a4,a4,1
20000a9e:	feb716e3          	bne	a4,a1,20000a8a <PcdReq+0x40a>
20000aa2:	bfd1                	j	20000a76 <PcdReq+0x3f6>
				if(g_nfca_pcd_recv_buf_chain[i * sizeof(g_nfca_pcd_recv_buf)] == 0) {
20000aa4:	20000493          	li	s1,512
20000aa8:	bff1                	j	20000a84 <PcdReq+0x404>

20000aaa <process_usb_packet>:
// main process loop functions

__HIGH_CODE
void process_usb_packet(void) {
	// Check if we have received a packet in the global buffer
	if( ((uint16_t*)gs_usb_data_buf)[0]  ) {
20000aaa:	200027b7          	lui	a5,0x20002
20000aae:	f7c7d703          	lhu	a4,-132(a5) # 20001f7c <gs_usb_data_buf>
20000ab2:	c319                	beqz	a4,20000ab8 <process_usb_packet+0xe>
		// Handle specific commands here if needed (e.g. configuration)
		//

		// If we receive data but we aren't in card_interaction,
		// it might be a mistake or a re-sync. Clear the buffer.
		((uint16_t*)gs_usb_data_buf)[0] = 0;
20000ab4:	f6079e23          	sh	zero,-132(a5)
	}
}
20000ab8:	8082                	ret

20000aba <send_heartbeat_if_free>:

__HIGH_CODE
	void send_heartbeat_if_free(void) {
		const char *version = "nfca585 v1";
		// Only send if no message is currently queued.
		if (!g_usb_tx_len) {
20000aba:	c221d783          	lhu	a5,-990(gp) # 2000144e <g_usb_tx_len>
20000abe:	ef89                	bnez	a5,20000ad8 <send_heartbeat_if_free+0x1e>
			usb_tx_queue_message((const uint8_t*)version, (uint16_t)strlen(version));
20000ac0:	6509                	lui	a0,0x2
	void send_heartbeat_if_free(void) {
20000ac2:	1141                	addi	sp,sp,-16
			usb_tx_queue_message((const uint8_t*)version, (uint16_t)strlen(version));
20000ac4:	45a9                	li	a1,10
20000ac6:	57450513          	addi	a0,a0,1396 # 2574 <string0+0x34>
	void send_heartbeat_if_free(void) {
20000aca:	c606                	sw	ra,12(sp)
			usb_tx_queue_message((const uint8_t*)version, (uint16_t)strlen(version));
20000acc:	e0001097          	auipc	ra,0xe0001
20000ad0:	65a080e7          	jalr	1626(ra) # 2126 <usb_tx_queue_message.isra.0>
		}
		usb_tx_pump();
	}
20000ad4:	40b2                	lw	ra,12(sp)
20000ad6:	0141                	addi	sp,sp,16
		usb_tx_pump();
20000ad8:	e0001317          	auipc	t1,0xe0001
20000adc:	5a830067          	jr	1448(t1) # 2080 <usb_tx_pump>

20000ae0 <card_interaction>:

	__HIGH_CODE
	void card_interaction(int uid_len, int atqa, int sak) {
20000ae0:	7119                	addi	sp,sp,-128
20000ae2:	dca2                	sw	s0,120(sp)
20000ae4:	de86                	sw	ra,124(sp)
20000ae6:	daa6                	sw	s1,116(sp)
20000ae8:	d8ca                	sw	s2,112(sp)
20000aea:	d6ce                	sw	s3,108(sp)
20000aec:	d4d2                	sw	s4,104(sp)
20000aee:	d2d6                	sw	s5,100(sp)
20000af0:	d0da                	sw	s6,96(sp)
20000af2:	cede                	sw	s7,92(sp)
20000af4:	cce2                	sw	s8,88(sp)
20000af6:	cae6                	sw	s9,84(sp)
20000af8:	c8ea                	sw	s10,80(sp)
20000afa:	c6ee                	sw	s11,76(sp)
20000afc:	8432                	mv	s0,a2
	int iso14443_4 = ((sak & 0x20) != 0);
	int iso14443_3_devtest_jcop = (sak == 0x00 && gs_picc_uid[0] == 0x00);
20000afe:	0e061e63          	bnez	a2,20000bfa <card_interaction+0x11a>
20000b02:	c341c783          	lbu	a5,-972(gp) # 20001460 <gs_picc_uid>
20000b06:	c3418b13          	addi	s6,gp,-972 # 20001460 <gs_picc_uid>
20000b0a:	0e078b63          	beqz	a5,20000c00 <card_interaction+0x120>
20000b0e:	84aa                	mv	s1,a0
20000b10:	0878                	addi	a4,sp,28
	for (uint8_t page = 0; page <= 128; page += 4) {
20000b12:	4781                	li	a5,0
20000b14:	08400693          	li	a3,132
		page_starts[page_start_count++] = page;
20000b18:	00f70023          	sb	a5,0(a4)
	for (uint8_t page = 0; page <= 128; page += 4) {
20000b1c:	0791                	addi	a5,a5,4
20000b1e:	0ff7f793          	zext.b	a5,a5
20000b22:	0705                	addi	a4,a4,1
20000b24:	fed79ae3          	bne	a5,a3,20000b18 <card_interaction+0x38>
	page_starts[page_start_count++] = 131;
20000b28:	f8300793          	li	a5,-125
20000b2c:	02f10ea3          	sb	a5,61(sp)
	ISO14443AAppendCRCA(g_nfca_pcd_send_buf, 1);
20000b30:	4585                	li	a1,1
	g_nfca_pcd_send_buf[0] = CMD_T2T_GET_VERSION;
20000b32:	06000793          	li	a5,96
	ISO14443AAppendCRCA(g_nfca_pcd_send_buf, 1);
20000b36:	04018513          	addi	a0,gp,64 # 2000186c <g_nfca_pcd_send_buf>
	g_nfca_pcd_send_buf[0] = CMD_T2T_GET_VERSION;
20000b3a:	04f18023          	sb	a5,64(gp) # 2000186c <g_nfca_pcd_send_buf>
	ISO14443AAppendCRCA(g_nfca_pcd_send_buf, 1);
20000b3e:	3471                	jal	200005ca <ISO14443AAppendCRCA>
	ISO14443ACalOddParityBit(g_nfca_pcd_send_buf, g_nfca_parity_buf, 3);
20000b40:	460d                	li	a2,3
20000b42:	15018593          	addi	a1,gp,336 # 2000197c <g_nfca_parity_buf>
20000b46:	04018513          	addi	a0,gp,64 # 2000186c <g_nfca_pcd_send_buf>
20000b4a:	3639                	jal	20000658 <ISO14443ACalOddParityBit>
	R16_NFC_TMR = (uint16_t)ticks;
20000b4c:	7761                	lui	a4,0xffff8
20000b4e:	4000e7b7          	lui	a5,0x4000e
20000b52:	6c470713          	addi	a4,a4,1732 # ffff86c4 <_eusrstack+0xdffd86c4>
20000b56:	00e79823          	sh	a4,16(a5) # 4000e010 <_eusrstack+0x1ffee010>
	if (data_bits_num <= 3) {
20000b5a:	4561                	li	a0,24
20000b5c:	e0001097          	auipc	ra,0xe0001
20000b60:	d32080e7          	jalr	-718(ra) # 188e <nfca_pcd_comm.part.0.constprop.0>
20000b64:	04018d93          	addi	s11,gp,64 # 2000186c <g_nfca_pcd_send_buf>
	if (nfca_pcd_comm(24, NFCA_PCD_REC_MODE_NORMAL, 0) != 0) {
20000b68:	10051b63          	bnez	a0,20000c7e <card_interaction+0x19e>
	if (nfca_pcd_wait_comm_end() != NFCA_PCD_CONTROLLER_STATE_DONE) {
20000b6c:	e0001097          	auipc	ra,0xe0001
20000b70:	c42080e7          	jalr	-958(ra) # 17ae <nfca_pcd_wait_comm_end>
20000b74:	4795                	li	a5,5
20000b76:	10f51463          	bne	a0,a5,20000c7e <card_interaction+0x19e>
	if ((g_nfca_pcd_recv_bits % 9) != 0) {
20000b7a:	c281a783          	lw	a5,-984(gp) # 20001454 <g_nfca_pcd_recv_bits>
20000b7e:	4725                	li	a4,9
20000b80:	02e7f7b3          	remu	a5,a5,a4
20000b84:	0e079d63          	bnez	a5,20000c7e <card_interaction+0x19e>
	int nbytes = g_nfca_pcd_recv_bits / 9;
20000b88:	c281a783          	lw	a5,-984(gp) # 20001454 <g_nfca_pcd_recv_bits>
	if (nbytes != (NTAG21X_VERSION_LEN + 2)) {
20000b8c:	4721                	li	a4,8
20000b8e:	fa678793          	addi	a5,a5,-90
20000b92:	0ef76663          	bltu	a4,a5,20000c7e <card_interaction+0x19e>
	if (!ISO14443ACheckOddParityBit(g_nfca_pcd_recv_buf, g_nfca_parity_buf, nbytes)) {
20000b96:	4629                	li	a2,10
20000b98:	15018593          	addi	a1,gp,336 # 2000197c <g_nfca_parity_buf>
20000b9c:	25018513          	addi	a0,gp,592 # 20001a7c <g_nfca_pcd_recv_buf>
20000ba0:	3459                	jal	20000626 <ISO14443ACheckOddParityBit>
20000ba2:	cd71                	beqz	a0,20000c7e <card_interaction+0x19e>
	if (ISO14443_CRCA(g_nfca_pcd_recv_buf, nbytes) != 0) {
20000ba4:	45a9                	li	a1,10
20000ba6:	25018513          	addi	a0,gp,592 # 20001a7c <g_nfca_pcd_recv_buf>
20000baa:	3ae1                	jal	20000582 <ISO14443_CRCA>
20000bac:	e969                	bnez	a0,20000c7e <card_interaction+0x19e>
	for (int i = 0; i < NTAG21X_VERSION_LEN; ++i) {
20000bae:	4701                	li	a4,0
		g_last_ntag_version[i] = g_nfca_pcd_recv_buf[i];
20000bb0:	c0c18793          	addi	a5,gp,-1012 # 20001438 <g_last_ntag_version>
20000bb4:	25018513          	addi	a0,gp,592 # 20001a7c <g_nfca_pcd_recv_buf>
	for (int i = 0; i < NTAG21X_VERSION_LEN; ++i) {
20000bb8:	46a1                	li	a3,8
		g_last_ntag_version[i] = g_nfca_pcd_recv_buf[i];
20000bba:	00a705b3          	add	a1,a4,a0
20000bbe:	0005c583          	lbu	a1,0(a1)
20000bc2:	00f70633          	add	a2,a4,a5
	for (int i = 0; i < NTAG21X_VERSION_LEN; ++i) {
20000bc6:	0705                	addi	a4,a4,1
		g_last_ntag_version[i] = g_nfca_pcd_recv_buf[i];
20000bc8:	00b60023          	sb	a1,0(a2)
	for (int i = 0; i < NTAG21X_VERSION_LEN; ++i) {
20000bcc:	fed717e3          	bne	a4,a3,20000bba <card_interaction+0xda>
	       (g_last_ntag_version[3] == 0x02) &&
20000bd0:	0017c703          	lbu	a4,1(a5)
20000bd4:	4691                	li	a3,4
20000bd6:	02d71063          	bne	a4,a3,20000bf6 <card_interaction+0x116>
	       (g_last_ntag_version[2] == 0x04) &&
20000bda:	0027cc83          	lbu	s9,2(a5)
	return (g_last_ntag_version[1] == 0x04) &&
20000bde:	00ec9c63          	bne	s9,a4,20000bf6 <card_interaction+0x116>
	       (g_last_ntag_version[2] == 0x04) &&
20000be2:	0037c683          	lbu	a3,3(a5)
20000be6:	4709                	li	a4,2
20000be8:	00e69763          	bne	a3,a4,20000bf6 <card_interaction+0x116>
	       (g_last_ntag_version[3] == 0x02) &&
20000bec:	0067c683          	lbu	a3,6(a5)
20000bf0:	4745                	li	a4,17
20000bf2:	0ae68963          	beq	a3,a4,20000ca4 <card_interaction+0x1c4>
		usb_send_ntag_done_packet(2);
20000bf6:	4509                	li	a0,2
20000bf8:	a061                	j	20000c80 <card_interaction+0x1a0>
	int iso14443_4 = ((sak & 0x20) != 0);
20000bfa:	02067413          	andi	s0,a2,32
	if (iso14443_3_type2) {
		ntag_dump_read_only(uid_len);
		return;
	}

	if(iso14443_4 || iso14443_3_devtest_jcop) {
20000bfe:	c02d                	beqz	s0,20000c60 <card_interaction+0x180>
		if(PcdReq(CMD_RATS, 0, 0) == PCD_NO_ERROR) {
20000c00:	4601                	li	a2,0
20000c02:	4581                	li	a1,0
20000c04:	0e000513          	li	a0,224
20000c08:	3ca5                	jal	20000680 <PcdReq>
20000c0a:	e939                	bnez	a0,20000c60 <card_interaction+0x180>
			// Send RATS response to PC
			while (g_usb_tx_len) { }
20000c0c:	c221d783          	lhu	a5,-990(gp) # 2000144e <g_usb_tx_len>
20000c10:	fff5                	bnez	a5,20000c0c <card_interaction+0x12c>
			usb_tx_queue_message((const uint8_t*)g_nfca_pcd_recv_buf, (uint16_t)(g_nfca_pcd_recv_bits / 9));
20000c12:	c281a583          	lw	a1,-984(gp) # 20001454 <g_nfca_pcd_recv_bits>
20000c16:	47a5                	li	a5,9
20000c18:	02f5d5b3          	divu	a1,a1,a5
20000c1c:	25018513          	addi	a0,gp,592 # 20001a7c <g_nfca_pcd_recv_buf>

				// Set a timeout for the PC to reply
				timeout = now_ticks() + Ticks_from_Ms(PCD_APDU_OVER_TIME);
20000c20:	005f3437          	lui	s0,0x5f3
20000c24:	70040413          	addi	s0,s0,1792 # 5f3700 <ch585_grand_finale.c.edbc3f23+0x5ef863>
	return (uint64_t)funSysTick32();
20000c28:	e000fb37          	lui	s6,0xe000f

				// While waiting for PC response, we block here because timing is strict
				// for the NFC field. Losing the field usually kills the card state.
				while( (int64_t)(now_ticks() - timeout) < 0 ) {
					usb_tx_pump();
					if( *(volatile uint16_t*)gs_usb_data_buf ) {
20000c2c:	20002ab7          	lui	s5,0x20002
			usb_tx_queue_message((const uint8_t*)g_nfca_pcd_recv_buf, (uint16_t)(g_nfca_pcd_recv_bits / 9));
20000c30:	05c2                	slli	a1,a1,0x10
20000c32:	81c1                	srli	a1,a1,0x10
20000c34:	e0001097          	auipc	ra,0xe0001
20000c38:	4f2080e7          	jalr	1266(ra) # 2126 <usb_tx_queue_message.isra.0>
	return (uint64_t)funSysTick32();
20000c3c:	e000f7b7          	lui	a5,0xe000f
20000c40:	4784                	lw	s1,8(a5)
				timeout = now_ticks() + Ticks_from_Ms(PCD_APDU_OVER_TIME);
20000c42:	9426                	add	s0,s0,s1
20000c44:	009434b3          	sltu	s1,s0,s1
				while( (int64_t)(now_ticks() - timeout) < 0 ) {
20000c48:	40900bb3          	neg	s7,s1
	return (uint64_t)funSysTick32();
20000c4c:	008b2703          	lw	a4,8(s6) # e000f008 <_eusrstack+0xbffef008>
				while( (int64_t)(now_ticks() - timeout) < 0 ) {
20000c50:	408707b3          	sub	a5,a4,s0
20000c54:	00f737b3          	sltu	a5,a4,a5
20000c58:	40fb87b3          	sub	a5,s7,a5
20000c5c:	1a07c563          	bltz	a5,20000e06 <card_interaction+0x326>
						((uint16_t*)gs_usb_data_buf)[0] = 0;
				}
			}
		}
	}
}
20000c60:	50f6                	lw	ra,124(sp)
20000c62:	5466                	lw	s0,120(sp)
20000c64:	54d6                	lw	s1,116(sp)
20000c66:	5946                	lw	s2,112(sp)
20000c68:	59b6                	lw	s3,108(sp)
20000c6a:	5a26                	lw	s4,104(sp)
20000c6c:	5a96                	lw	s5,100(sp)
20000c6e:	5b06                	lw	s6,96(sp)
20000c70:	4bf6                	lw	s7,92(sp)
20000c72:	4c66                	lw	s8,88(sp)
20000c74:	4cd6                	lw	s9,84(sp)
20000c76:	4d46                	lw	s10,80(sp)
20000c78:	4db6                	lw	s11,76(sp)
20000c7a:	6109                	addi	sp,sp,128
20000c7c:	8082                	ret
		usb_send_ntag_done_packet(1);
20000c7e:	4505                	li	a0,1
}
20000c80:	5466                	lw	s0,120(sp)
20000c82:	50f6                	lw	ra,124(sp)
20000c84:	54d6                	lw	s1,116(sp)
20000c86:	5946                	lw	s2,112(sp)
20000c88:	59b6                	lw	s3,108(sp)
20000c8a:	5a26                	lw	s4,104(sp)
20000c8c:	5a96                	lw	s5,100(sp)
20000c8e:	5b06                	lw	s6,96(sp)
20000c90:	4bf6                	lw	s7,92(sp)
20000c92:	4c66                	lw	s8,88(sp)
20000c94:	4cd6                	lw	s9,84(sp)
20000c96:	4d46                	lw	s10,80(sp)
20000c98:	4db6                	lw	s11,76(sp)
20000c9a:	6109                	addi	sp,sp,128
	usb_send_ntag_done_packet(0);
20000c9c:	e0001317          	auipc	t1,0xe0001
20000ca0:	4cc30067          	jr	1228(t1) # 2168 <usb_send_ntag_done_packet>
	packet[0] = USB_PKT_NTAG_VERSION;
20000ca4:	fa100713          	li	a4,-95
20000ca8:	00e10223          	sb	a4,4(sp)
	packet[1] = (uint8_t)uid_len;
20000cac:	0058                	addi	a4,sp,4
20000cae:	009102a3          	sb	s1,5(sp)
	for (int i = 0; i < uid_len; ++i) {
20000cb2:	863a                	mv	a2,a4
20000cb4:	4681                	li	a3,0
20000cb6:	0605                	addi	a2,a2,1
20000cb8:	0a96c363          	blt	a3,s1,20000d5e <card_interaction+0x27e>
20000cbc:	00148513          	addi	a0,s1,1
	for (int i = uid_len; i < 10; ++i) {
20000cc0:	46b1                	li	a3,12
20000cc2:	0505                	addi	a0,a0,1
20000cc4:	0ad51563          	bne	a0,a3,20000d6e <card_interaction+0x28e>
	for (int i = 0; i < NTAG21X_VERSION_LEN; ++i) {
20000cc8:	4681                	li	a3,0
20000cca:	4621                	li	a2,8
		packet[12 + i] = g_last_ntag_version[i];
20000ccc:	00d785b3          	add	a1,a5,a3
20000cd0:	0005c583          	lbu	a1,0(a1)
	for (int i = 0; i < NTAG21X_VERSION_LEN; ++i) {
20000cd4:	0685                	addi	a3,a3,1
20000cd6:	0705                	addi	a4,a4,1
		packet[12 + i] = g_last_ntag_version[i];
20000cd8:	00b705a3          	sb	a1,11(a4)
	for (int i = 0; i < NTAG21X_VERSION_LEN; ++i) {
20000cdc:	fec698e3          	bne	a3,a2,20000ccc <card_interaction+0x1ec>
	while (g_usb_tx_len) { }
20000ce0:	c221d783          	lhu	a5,-990(gp) # 2000144e <g_usb_tx_len>
20000ce4:	fff5                	bnez	a5,20000ce0 <card_interaction+0x200>
	usb_tx_queue_message(packet, sizeof(packet));
20000ce6:	45d5                	li	a1,21
20000ce8:	0048                	addi	a0,sp,4
	R16_NFC_TMR = (uint16_t)ticks;
20000cea:	4000ebb7          	lui	s7,0x4000e
20000cee:	7c61                	lui	s8,0xffff8
	usb_tx_queue_message(packet, sizeof(packet));
20000cf0:	e0001097          	auipc	ra,0xe0001
20000cf4:	436080e7          	jalr	1078(ra) # 2126 <usb_tx_queue_message.isra.0>
	R16_NFC_TMR = (uint16_t)ticks;
20000cf8:	0bc1                	addi	s7,s7,16 # 4000e010 <_eusrstack+0x1ffee010>
	usb_tx_pump();
20000cfa:	e0001097          	auipc	ra,0xe0001
20000cfe:	386080e7          	jalr	902(ra) # 2080 <usb_tx_pump>
	R16_NFC_TMR = (uint16_t)ticks;
20000d02:	6c4c0c13          	addi	s8,s8,1732 # ffff86c4 <_eusrstack+0xdffd86c4>
		uint8_t start_page = page_starts[i];
20000d06:	087c                	addi	a5,sp,28
20000d08:	97a2                	add	a5,a5,s0
20000d0a:	0007cb03          	lbu	s6,0(a5) # e000f000 <_eusrstack+0xbffef000>
		if ((start_page + 4) > NTAG215_TOTAL_PAGES) {
20000d0e:	08300793          	li	a5,131
		uint8_t valid_pages = 4;
20000d12:	84e6                	mv	s1,s9
		if ((start_page + 4) > NTAG215_TOTAL_PAGES) {
20000d14:	0167f863          	bgeu	a5,s6,20000d24 <card_interaction+0x244>
			valid_pages = NTAG215_TOTAL_PAGES - start_page;
20000d18:	f8700793          	li	a5,-121
20000d1c:	416784b3          	sub	s1,a5,s6
20000d20:	0ff4f493          	zext.b	s1,s1
	g_nfca_pcd_send_buf[0] = CMD_T2T_READ;
20000d24:	03000793          	li	a5,48
	ISO14443AAppendCRCA(g_nfca_pcd_send_buf, 2);
20000d28:	4589                	li	a1,2
20000d2a:	04018513          	addi	a0,gp,64 # 2000186c <g_nfca_pcd_send_buf>
	g_nfca_pcd_send_buf[0] = CMD_T2T_READ;
20000d2e:	00fd8023          	sb	a5,0(s11)
	g_nfca_pcd_send_buf[1] = start_page;
20000d32:	016d80a3          	sb	s6,1(s11)
	ISO14443AAppendCRCA(g_nfca_pcd_send_buf, 2);
20000d36:	895ff0ef          	jal	200005ca <ISO14443AAppendCRCA>
	ISO14443ACalOddParityBit(g_nfca_pcd_send_buf, g_nfca_parity_buf, 4);
20000d3a:	04018513          	addi	a0,gp,64 # 2000186c <g_nfca_pcd_send_buf>
20000d3e:	4611                	li	a2,4
20000d40:	15018593          	addi	a1,gp,336 # 2000197c <g_nfca_parity_buf>
20000d44:	915ff0ef          	jal	20000658 <ISO14443ACalOddParityBit>
	R16_NFC_TMR = (uint16_t)ticks;
20000d48:	02000513          	li	a0,32
20000d4c:	018b9023          	sh	s8,0(s7)
	if (data_bits_num <= 3) {
20000d50:	e0001097          	auipc	ra,0xe0001
20000d54:	b3e080e7          	jalr	-1218(ra) # 188e <nfca_pcd_comm.part.0.constprop.0>
	if (nfca_pcd_comm(32, NFCA_PCD_REC_MODE_NORMAL, 0) != 0) {
20000d58:	c105                	beqz	a0,20000d78 <card_interaction+0x298>
			usb_send_ntag_done_packet(3);
20000d5a:	450d                	li	a0,3
20000d5c:	b715                	j	20000c80 <card_interaction+0x1a0>
		packet[2 + i] = gs_picc_uid[i];
20000d5e:	00db05b3          	add	a1,s6,a3
20000d62:	0005c583          	lbu	a1,0(a1)
	for (int i = 0; i < uid_len; ++i) {
20000d66:	0685                	addi	a3,a3,1
		packet[2 + i] = gs_picc_uid[i];
20000d68:	00b600a3          	sb	a1,1(a2)
	for (int i = 0; i < uid_len; ++i) {
20000d6c:	b7a9                	j	20000cb6 <card_interaction+0x1d6>
		packet[2 + i] = 0;
20000d6e:	00a70633          	add	a2,a4,a0
20000d72:	00060023          	sb	zero,0(a2)
	for (int i = uid_len; i < 10; ++i) {
20000d76:	b7b1                	j	20000cc2 <card_interaction+0x1e2>
	if (nfca_pcd_wait_comm_end() != NFCA_PCD_CONTROLLER_STATE_DONE) {
20000d78:	e0001097          	auipc	ra,0xe0001
20000d7c:	a36080e7          	jalr	-1482(ra) # 17ae <nfca_pcd_wait_comm_end>
20000d80:	4795                	li	a5,5
20000d82:	fcf51ce3          	bne	a0,a5,20000d5a <card_interaction+0x27a>
	if ((g_nfca_pcd_recv_bits % 9) != 0) {
20000d86:	c281a783          	lw	a5,-984(gp) # 20001454 <g_nfca_pcd_recv_bits>
20000d8a:	4725                	li	a4,9
20000d8c:	02e7f7b3          	remu	a5,a5,a4
20000d90:	f7e9                	bnez	a5,20000d5a <card_interaction+0x27a>
	int nbytes = g_nfca_pcd_recv_bits / 9;
20000d92:	c281a783          	lw	a5,-984(gp) # 20001454 <g_nfca_pcd_recv_bits>
	if (nbytes != (NTAG_T2T_READ_BYTES + 2)) {
20000d96:	4721                	li	a4,8
20000d98:	f5e78793          	addi	a5,a5,-162
20000d9c:	faf76fe3          	bltu	a4,a5,20000d5a <card_interaction+0x27a>
	if (!ISO14443ACheckOddParityBit(g_nfca_pcd_recv_buf, g_nfca_parity_buf, nbytes)) {
20000da0:	4649                	li	a2,18
20000da2:	15018593          	addi	a1,gp,336 # 2000197c <g_nfca_parity_buf>
20000da6:	25018513          	addi	a0,gp,592 # 20001a7c <g_nfca_pcd_recv_buf>
20000daa:	87dff0ef          	jal	20000626 <ISO14443ACheckOddParityBit>
20000dae:	d555                	beqz	a0,20000d5a <card_interaction+0x27a>
	return ISO14443_CRCA(g_nfca_pcd_recv_buf, nbytes) == 0;
20000db0:	45c9                	li	a1,18
20000db2:	25018513          	addi	a0,gp,592 # 20001a7c <g_nfca_pcd_recv_buf>
20000db6:	fccff0ef          	jal	20000582 <ISO14443_CRCA>
		if (!ntag_read_pages(start_page)) {
20000dba:	f145                	bnez	a0,20000d5a <card_interaction+0x27a>
	packet[0] = USB_PKT_NTAG_PAGE_DATA;
20000dbc:	fa200793          	li	a5,-94
	memcpy(&packet[2], page_data, NTAG_T2T_READ_BYTES);
20000dc0:	4641                	li	a2,16
20000dc2:	25018593          	addi	a1,gp,592 # 20001a7c <g_nfca_pcd_recv_buf>
20000dc6:	00610513          	addi	a0,sp,6
	packet[0] = USB_PKT_NTAG_PAGE_DATA;
20000dca:	00f10223          	sb	a5,4(sp)
	packet[1] = start_page;
20000dce:	016102a3          	sb	s6,5(sp)
	memcpy(&packet[2], page_data, NTAG_T2T_READ_BYTES);
20000dd2:	e0001097          	auipc	ra,0xe0001
20000dd6:	218080e7          	jalr	536(ra) # 1fea <memcpy>
	while (g_usb_tx_len) { }
20000dda:	c221d783          	lhu	a5,-990(gp) # 2000144e <g_usb_tx_len>
20000dde:	fff5                	bnez	a5,20000dda <card_interaction+0x2fa>
	usb_tx_queue_message(packet, (uint16_t)(2 + (page_count * 4)));
20000de0:	00249593          	slli	a1,s1,0x2
20000de4:	0589                	addi	a1,a1,2
20000de6:	0048                	addi	a0,sp,4
20000de8:	e0001097          	auipc	ra,0xe0001
20000dec:	33e080e7          	jalr	830(ra) # 2126 <usb_tx_queue_message.isra.0>
	usb_tx_pump();
20000df0:	e0001097          	auipc	ra,0xe0001
20000df4:	290080e7          	jalr	656(ra) # 2080 <usb_tx_pump>
	for (int i = 0; i < page_start_count; ++i) {
20000df8:	0405                	addi	s0,s0,1
20000dfa:	02200793          	li	a5,34
20000dfe:	f0f414e3          	bne	s0,a5,20000d06 <card_interaction+0x226>
	usb_send_ntag_done_packet(0);
20000e02:	4501                	li	a0,0
20000e04:	bdb5                	j	20000c80 <card_interaction+0x1a0>
					usb_tx_pump();
20000e06:	e0001097          	auipc	ra,0xe0001
20000e0a:	27a080e7          	jalr	634(ra) # 2080 <usb_tx_pump>
					if( *(volatile uint16_t*)gs_usb_data_buf ) {
20000e0e:	f7cad783          	lhu	a5,-132(s5) # 20001f7c <gs_usb_data_buf>
20000e12:	e2078de3          	beqz	a5,20000c4c <card_interaction+0x16c>
						if( PcdReq(CMD_IBLOCK, (uint8_t *)&gs_usb_data_buf[2], ((uint16_t*)gs_usb_data_buf)[0]) == PCD_NO_ERROR ) {
20000e16:	f7cad603          	lhu	a2,-132(s5)
20000e1a:	200025b7          	lui	a1,0x20002
20000e1e:	f7e58593          	addi	a1,a1,-130 # 20001f7e <gs_usb_data_buf+0x2>
20000e22:	4509                	li	a0,2
20000e24:	85dff0ef          	jal	20000680 <PcdReq>
20000e28:	e135                	bnez	a0,20000e8c <card_interaction+0x3ac>
20000e2a:	c4018413          	addi	s0,gp,-960 # 2000146c <g_nfca_pcd_recv_buf_chain>
20000e2e:	40040493          	addi	s1,s0,1024
								if(g_nfca_pcd_recv_buf_chain[i * sizeof(g_nfca_pcd_recv_buf)]) {
20000e32:	00044783          	lbu	a5,0(s0)
20000e36:	c38d                	beqz	a5,20000e58 <card_interaction+0x378>
									while (g_usb_tx_len) { }
20000e38:	c221d783          	lhu	a5,-990(gp) # 2000144e <g_usb_tx_len>
20000e3c:	fff5                	bnez	a5,20000e38 <card_interaction+0x358>
									usb_tx_queue_message((const uint8_t*)&g_nfca_pcd_recv_buf_chain[i * sizeof(g_nfca_pcd_recv_buf)], (uint16_t)sizeof(g_nfca_pcd_recv_buf));
20000e3e:	8522                	mv	a0,s0
20000e40:	10000593          	li	a1,256
20000e44:	e0001097          	auipc	ra,0xe0001
20000e48:	2e2080e7          	jalr	738(ra) # 2126 <usb_tx_queue_message.isra.0>
						for(int i = 0; i < NFCA_PCD_CHAINING_BUFFERS; i++) {
20000e4c:	10040413          	addi	s0,s0,256
									g_nfca_pcd_recv_buf_chain[i * sizeof(g_nfca_pcd_recv_buf)] = 0;
20000e50:	f0040023          	sb	zero,-256(s0)
						for(int i = 0; i < NFCA_PCD_CHAINING_BUFFERS; i++) {
20000e54:	fc941fe3          	bne	s0,s1,20000e32 <card_interaction+0x352>
							while (g_usb_tx_len) { }
20000e58:	c221d783          	lhu	a5,-990(gp) # 2000144e <g_usb_tx_len>
20000e5c:	fff5                	bnez	a5,20000e58 <card_interaction+0x378>
							usb_tx_queue_message((const uint8_t*)g_nfca_pcd_recv_buf, (uint16_t)(g_nfca_pcd_recv_bits / 9));
20000e5e:	c281a583          	lw	a1,-984(gp) # 20001454 <g_nfca_pcd_recv_bits>
20000e62:	47a5                	li	a5,9
20000e64:	25018513          	addi	a0,gp,592 # 20001a7c <g_nfca_pcd_recv_buf>
20000e68:	02f5d5b3          	divu	a1,a1,a5
							timeout = now_ticks() + Ticks_from_Ms(PCD_APDU_OVER_TIME);
20000e6c:	005f3437          	lui	s0,0x5f3
20000e70:	70040413          	addi	s0,s0,1792 # 5f3700 <ch585_grand_finale.c.edbc3f23+0x5ef863>
							usb_tx_queue_message((const uint8_t*)g_nfca_pcd_recv_buf, (uint16_t)(g_nfca_pcd_recv_bits / 9));
20000e74:	05c2                	slli	a1,a1,0x10
20000e76:	81c1                	srli	a1,a1,0x10
20000e78:	e0001097          	auipc	ra,0xe0001
20000e7c:	2ae080e7          	jalr	686(ra) # 2126 <usb_tx_queue_message.isra.0>
	return (uint64_t)funSysTick32();
20000e80:	e000f7b7          	lui	a5,0xe000f
20000e84:	4784                	lw	s1,8(a5)
							timeout = now_ticks() + Ticks_from_Ms(PCD_APDU_OVER_TIME);
20000e86:	9426                	add	s0,s0,s1
20000e88:	009434b3          	sltu	s1,s0,s1
						((uint16_t*)gs_usb_data_buf)[0] = 0;
20000e8c:	f60a9e23          	sh	zero,-132(s5)
20000e90:	bb65                	j	20000c48 <card_interaction+0x168>

20000e92 <main_task_loop>:

__HIGH_CODE
void main_task_loop() {
20000e92:	711d                	addi	sp,sp,-96
20000e94:	c8ca                	sw	s2,80(sp)
20000e96:	c2d6                	sw	s5,68(sp)
20000e98:	ce86                	sw	ra,92(sp)
20000e9a:	cca2                	sw	s0,88(sp)
20000e9c:	caa6                	sw	s1,84(sp)
20000e9e:	c6ce                	sw	s3,76(sp)
20000ea0:	c4d2                	sw	s4,72(sp)
20000ea2:	c0da                	sw	s6,64(sp)
20000ea4:	de5e                	sw	s7,60(sp)
20000ea6:	dc62                	sw	s8,56(sp)
20000ea8:	da66                	sw	s9,52(sp)
20000eaa:	d86a                	sw	s10,48(sp)
20000eac:	d66e                	sw	s11,44(sp)
	tkey_cfg = R8_TKEY_CFG;
20000eae:	400017b7          	lui	a5,0x40001
	return (uint64_t)funSysTick32();
20000eb2:	e000f337          	lui	t1,0xe000f
	sensor = R8_TEM_SENSOR;
20000eb6:	40001737          	lui	a4,0x40001
	return (uint64_t)funSysTick32();
20000eba:	00832903          	lw	s2,8(t1) # e000f008 <_eusrstack+0xbffef008>
	channel = R8_ADC_CHANNEL;
20000ebe:	400016b7          	lui	a3,0x40001
	tkey_cfg = R8_TKEY_CFG;
20000ec2:	0577c583          	lbu	a1,87(a5) # 40001057 <_eusrstack+0x1ffe1057>
	sensor = R8_TEM_SENSOR;
20000ec6:	05b74883          	lbu	a7,91(a4) # 4000105b <_eusrstack+0x1ffe105b>
	config = R8_ADC_CFG;
20000eca:	40001737          	lui	a4,0x40001
	channel = R8_ADC_CHANNEL;
20000ece:	0586c803          	lbu	a6,88(a3) # 40001058 <_eusrstack+0x1ffe1058>
	config = R8_ADC_CFG;
20000ed2:	05974503          	lbu	a0,89(a4) # 40001059 <_eusrstack+0x1ffe1059>
	R8_TKEY_CFG &= ~RB_TKEY_PWR_ON;
20000ed6:	0577c603          	lbu	a2,87(a5)
	return (uint64_t)funSysTick32();
20000eda:	4a81                	li	s5,0
	tkey_cfg = R8_TKEY_CFG;
20000edc:	0ff5f593          	zext.b	a1,a1
	R8_TKEY_CFG &= ~RB_TKEY_PWR_ON;
20000ee0:	0fe67613          	andi	a2,a2,254
20000ee4:	04c78ba3          	sb	a2,87(a5)
	R8_ADC_CHANNEL = CH_INTE_VBAT;
20000ee8:	47b9                	li	a5,14
20000eea:	04f68c23          	sb	a5,88(a3)
	R8_ADC_CFG = RB_ADC_POWER_ON | RB_ADC_BUF_EN | (0 << 4);
20000eee:	478d                	li	a5,3
20000ef0:	04f70ca3          	sb	a5,89(a4)
	R8_ADC_CONVERT &= ~RB_ADC_PGA_GAIN2;
20000ef4:	400017b7          	lui	a5,0x40001
20000ef8:	05a7c703          	lbu	a4,90(a5) # 4000105a <_eusrstack+0x1ffe105a>
20000efc:	05a78793          	addi	a5,a5,90
	sensor = R8_TEM_SENSOR;
20000f00:	0ff8f893          	zext.b	a7,a7
	R8_ADC_CONVERT &= ~RB_ADC_PGA_GAIN2;
20000f04:	0fd77713          	andi	a4,a4,253
20000f08:	00e78023          	sb	a4,0(a5)
	R8_ADC_CONVERT |= (3 << 4);
20000f0c:	0007c703          	lbu	a4,0(a5)
	channel = R8_ADC_CHANNEL;
20000f10:	0ff87813          	zext.b	a6,a6
	config = R8_ADC_CFG;
20000f14:	0ff57513          	zext.b	a0,a0
	R8_ADC_CONVERT |= (3 << 4);
20000f18:	03076713          	ori	a4,a4,48
20000f1c:	00e78023          	sb	a4,0(a5)
	R8_ADC_CONVERT |= RB_ADC_START;
20000f20:	0007c703          	lbu	a4,0(a5)
	return (uint64_t)funSysTick32();
20000f24:	e000fe37          	lui	t3,0xe000f
	R8_ADC_CONVERT |= RB_ADC_START;
20000f28:	00176713          	ori	a4,a4,1
20000f2c:	00e78023          	sb	a4,0(a5)
	return (uint64_t)funSysTick32();
20000f30:	00832603          	lw	a2,8(t1)
		uint64_t deadline = now_ticks() + Ticks_from_Ms(10);
20000f34:	00098737          	lui	a4,0x98
20000f38:	58070713          	addi	a4,a4,1408 # 98580 <ch585_grand_finale.c.edbc3f23+0x946e3>
20000f3c:	00e606b3          	add	a3,a2,a4
20000f40:	00c6b633          	sltu	a2,a3,a2
			if ((int64_t)(now_ticks() - deadline) > 0) {
20000f44:	40c00633          	neg	a2,a2
		while (R8_ADC_CONVERT & RB_ADC_START) {
20000f48:	0007c703          	lbu	a4,0(a5)
20000f4c:	8b05                	andi	a4,a4,1
20000f4e:	eb01                	bnez	a4,20000f5e <main_task_loop+0xcc>
	adc_data = R16_ADC_DATA;
20000f50:	400017b7          	lui	a5,0x40001
20000f54:	05c78793          	addi	a5,a5,92 # 4000105c <_eusrstack+0x1ffe105c>
20000f58:	0007d783          	lhu	a5,0(a5)
20000f5c:	a831                	j	20000f78 <main_task_loop+0xe6>
	return (uint64_t)funSysTick32();
20000f5e:	008e2703          	lw	a4,8(t3) # e000f008 <_eusrstack+0xbffef008>
			if ((int64_t)(now_ticks() - deadline) > 0) {
20000f62:	40d70333          	sub	t1,a4,a3
20000f66:	00673733          	sltu	a4,a4,t1
20000f6a:	40e60733          	sub	a4,a2,a4
20000f6e:	00e04563          	bgtz	a4,20000f78 <main_task_loop+0xe6>
20000f72:	fb79                	bnez	a4,20000f48 <main_task_loop+0xb6>
20000f74:	fc030ae3          	beqz	t1,20000f48 <main_task_loop+0xb6>
	R8_TEM_SENSOR = sensor;
20000f78:	400017b7          	lui	a5,0x40001
20000f7c:	05178da3          	sb	a7,91(a5) # 4000105b <_eusrstack+0x1ffe105b>
	R8_ADC_CHANNEL = channel;
20000f80:	400017b7          	lui	a5,0x40001
20000f84:	05078c23          	sb	a6,88(a5) # 40001058 <_eusrstack+0x1ffe1058>
	R8_ADC_CFG = config;
20000f88:	400017b7          	lui	a5,0x40001
20000f8c:	04a78ca3          	sb	a0,89(a5) # 40001059 <_eusrstack+0x1ffe1059>
	R8_TKEY_CFG = tkey_cfg;
20000f90:	400017b7          	lui	a5,0x40001
20000f94:	04b78ba3          	sb	a1,87(a5) # 40001057 <_eusrstack+0x1ffe1057>
	// Check VDD once at start or periodically if needed (best-effort).
	{
		uint16_t vdd_raw = sys_get_vdd();
		int vdd_value = ADC_VoltConverSignalPGA_MINUS_12dB(vdd_raw);
		if (NFCA_FORCE_MAX_DRIVE) {
			NFCA_PCD_SET_OUT_DRV(NFCA_PCD_DRV_CTRL_LEVEL3);
20000f98:	4000e737          	lui	a4,0x4000e
20000f9c:	4b5c                	lw	a5,20(a4)
20000f9e:	6699                	lui	a3,0x6
20000fa0:	07ce                	slli	a5,a5,0x13
20000fa2:	83cd                	srli	a5,a5,0x13
20000fa4:	8fd5                	or	a5,a5,a3
		uint16_t hz = g_uid_scale[b & 0x07u];
20000fa6:	6b89                	lui	s7,0x2
			NFCA_PCD_SET_OUT_DRV(NFCA_PCD_DRV_CTRL_LEVEL3);
20000fa8:	cb5c                	sw	a5,20(a4)
	uint64_t next_scan_time = 0;
20000faa:	4481                	li	s1,0
20000fac:	4981                	li	s3,0
							}
						}

						if (!used_t2t_fallback && res == PCD_NO_ERROR) {
							if(g_nfca_pcd_recv_buf[0] == 0x88) {
								gs_picc_uid[0] = g_nfca_pcd_recv_buf[1];
20000fae:	25018413          	addi	s0,gp,592 # 20001a7c <g_nfca_pcd_recv_buf>
		uint16_t hz = g_uid_scale[b & 0x07u];
20000fb2:	5c4b8b93          	addi	s7,s7,1476 # 25c4 <g_uid_scale>
		process_usb_packet();
20000fb6:	3cd5                	jal	20000aaa <process_usb_packet>
		usb_tx_pump();
20000fb8:	e0001097          	auipc	ra,0xe0001
20000fbc:	0c8080e7          	jalr	200(ra) # 2080 <usb_tx_pump>
	return (uint64_t)funSysTick32();
20000fc0:	e000f7b7          	lui	a5,0xe000f
20000fc4:	479c                	lw	a5,8(a5)
		if ( (int64_t)(now_ticks() - next_heartbeat_time) > 0 ) {
20000fc6:	412786b3          	sub	a3,a5,s2
20000fca:	00d7b733          	sltu	a4,a5,a3
20000fce:	415007b3          	neg	a5,s5
20000fd2:	8f99                	sub	a5,a5,a4
20000fd4:	00f04463          	bgtz	a5,20000fdc <main_task_loop+0x14a>
20000fd8:	ef91                	bnez	a5,20000ff4 <main_task_loop+0x162>
20000fda:	ce89                	beqz	a3,20000ff4 <main_task_loop+0x162>
			send_heartbeat_if_free();
20000fdc:	3cf9                	jal	20000aba <send_heartbeat_if_free>
	return (uint64_t)funSysTick32();
20000fde:	e000f7b7          	lui	a5,0xe000f
20000fe2:	0087aa83          	lw	s5,8(a5) # e000f008 <_eusrstack+0xbffef008>
			next_heartbeat_time = now_ticks() + Ticks_from_Ms(1000);
20000fe6:	03b82937          	lui	s2,0x3b82
20000fea:	60090913          	addi	s2,s2,1536 # 3b82600 <ch585_grand_finale.c.edbc3f23+0x3b7e763>
20000fee:	9956                	add	s2,s2,s5
20000ff0:	01593ab3          	sltu	s5,s2,s5
	return (uint64_t)funSysTick32();
20000ff4:	e000f7b7          	lui	a5,0xe000f
20000ff8:	479c                	lw	a5,8(a5)
		if ( (int64_t)(now_ticks() - next_scan_time) > 0 ) {
20000ffa:	409786b3          	sub	a3,a5,s1
20000ffe:	00d7b733          	sltu	a4,a5,a3
20001002:	413007b3          	neg	a5,s3
20001006:	8f99                	sub	a5,a5,a4
20001008:	00f04463          	bgtz	a5,20001010 <main_task_loop+0x17e>
2000100c:	f7cd                	bnez	a5,20000fb6 <main_task_loop+0x124>
2000100e:	d6c5                	beqz	a3,20000fb6 <main_task_loop+0x124>
			nfca_pcd_start();
20001010:	e0000097          	auipc	ra,0xe0000
20001014:	76e080e7          	jalr	1902(ra) # 177e <nfca_pcd_start>
					R8_NFC_CMD &= ~RB_NFC_ANTENNA_ON;
20001018:	4000e4b7          	lui	s1,0x4000e
2000101c:	0004c783          	lbu	a5,0(s1) # 4000e000 <_eusrstack+0x1ffee000>
					Delay_Ms(5);
20001020:	0004c537          	lui	a0,0x4c
20001024:	2c050513          	addi	a0,a0,704 # 4c2c0 <ch585_grand_finale.c.edbc3f23+0x48423>
					R8_NFC_CMD &= ~RB_NFC_ANTENNA_ON;
20001028:	0fb7f793          	andi	a5,a5,251
2000102c:	00f48023          	sb	a5,0(s1)
					Delay_Ms(5);
20001030:	e0000097          	auipc	ra,0xe0000
20001034:	4a0080e7          	jalr	1184(ra) # 14d0 <DelaySysTick>
					R8_NFC_CMD |= RB_NFC_ANTENNA_ON;
20001038:	0004c783          	lbu	a5,0(s1)
					Delay_Ms(NFCA_FIELD_SETTLE_MS);
2000103c:	00098537          	lui	a0,0x98
20001040:	58050513          	addi	a0,a0,1408 # 98580 <ch585_grand_finale.c.edbc3f23+0x946e3>
					R8_NFC_CMD |= RB_NFC_ANTENNA_ON;
20001044:	0047e793          	ori	a5,a5,4
20001048:	00f48023          	sb	a5,0(s1)
					Delay_Us(200);
2000104c:	6d0d                	lui	s10,0x3
					Delay_Ms(NFCA_FIELD_SETTLE_MS);
2000104e:	e0000097          	auipc	ra,0xe0000
20001052:	482080e7          	jalr	1154(ra) # 14d0 <DelaySysTick>
20001056:	4995                	li	s3,5
					if (r == PCD_NO_ERROR && g_nfca_pcd_recv_bits >= (2 * 9)) break;
20001058:	4dc5                	li	s11,17
					Delay_Us(200);
2000105a:	070d0d13          	addi	s10,s10,112 # 3070 <_data_lma+0x954>
					uint16_t r = (uint16_t)PcdReq(CMD_WUPA, 0, 0);
2000105e:	4601                	li	a2,0
20001060:	4581                	li	a1,0
20001062:	05200513          	li	a0,82
20001066:	e1aff0ef          	jal	20000680 <PcdReq>
					if (r != PCD_NO_ERROR) {
2000106a:	0542                	slli	a0,a0,0x10
2000106c:	8141                	srli	a0,a0,0x10
2000106e:	24051a63          	bnez	a0,200012c2 <main_task_loop+0x430>
					if (r == PCD_NO_ERROR && g_nfca_pcd_recv_bits >= (2 * 9)) break;
20001072:	c281a783          	lw	a5,-984(gp) # 20001454 <g_nfca_pcd_recv_bits>
20001076:	00fded63          	bltu	s11,a5,20001090 <main_task_loop+0x1fe>
2000107a:	4481                	li	s1,0
					Delay_Us(200);
2000107c:	856a                	mv	a0,s10
				for (int attempt = 0; attempt < NFCA_REQA_RETRIES; attempt++) {
2000107e:	19fd                	addi	s3,s3,-1
					Delay_Us(200);
20001080:	e0000097          	auipc	ra,0xe0000
20001084:	450080e7          	jalr	1104(ra) # 14d0 <DelaySysTick>
				for (int attempt = 0; attempt < NFCA_REQA_RETRIES; attempt++) {
20001088:	fc099be3          	bnez	s3,2000105e <main_task_loop+0x1cc>
				if(reqa_res == PCD_NO_ERROR) {
2000108c:	2e049663          	bnez	s1,20001378 <main_task_loop+0x4e6>
						Delay_Us(350);
20001090:	6515                	lui	a0,0x5
20001092:	4c450513          	addi	a0,a0,1220 # 54c4 <ch585_grand_finale.c.edbc3f23+0x1627>
						atqa = ((uint16_t *)(g_nfca_pcd_recv_buf))[0];
20001096:	2501d983          	lhu	s3,592(gp) # 20001a7c <g_nfca_pcd_recv_buf>
						Delay_Us(350);
2000109a:	e0000097          	auipc	ra,0xe0000
2000109e:	436080e7          	jalr	1078(ra) # 14d0 <DelaySysTick>
						res = PcdReq(CMD_ANTICOLL1, /*0x20*/0, 2);
200010a2:	4609                	li	a2,2
200010a4:	4581                	li	a1,0
200010a6:	09300513          	li	a0,147
200010aa:	dd6ff0ef          	jal	20000680 <PcdReq>
200010ae:	8daa                	mv	s11,a0
						if (res != PCD_NO_ERROR) {
200010b0:	2c050663          	beqz	a0,2000137c <main_task_loop+0x4ea>
							if (PcdReq(CMD_T2T_READ, &page0, 1) == PCD_NO_ERROR) {
200010b4:	4605                	li	a2,1
200010b6:	080c                	addi	a1,sp,16
200010b8:	03000513          	li	a0,48
							uint8_t page0 = 0;
200010bc:	00010823          	sb	zero,16(sp)
							if (PcdReq(CMD_T2T_READ, &page0, 1) == PCD_NO_ERROR) {
200010c0:	dc0ff0ef          	jal	20000680 <PcdReq>
200010c4:	24051963          	bnez	a0,20001316 <main_task_loop+0x484>
								int nbytes = (int)(g_nfca_pcd_recv_bits / 9);
200010c8:	c281a703          	lw	a4,-984(gp) # 20001454 <g_nfca_pcd_recv_bits>
								if (nbytes >= 18) { // 16 data bytes + CRC_A (2)
200010cc:	0a100793          	li	a5,161
200010d0:	24e7f363          	bgeu	a5,a4,20001316 <main_task_loop+0x484>
									uint8_t calc_bcc0 = (uint8_t)(0x88u ^ d[0] ^ d[1] ^ d[2]);
200010d4:	2501c883          	lbu	a7,592(gp) # 20001a7c <g_nfca_pcd_recv_buf>
200010d8:	00244503          	lbu	a0,2(s0)
200010dc:	00144803          	lbu	a6,1(s0)
									if (bcc0 == calc_bcc0 && bcc1 == calc_bcc1) {
200010e0:	00344703          	lbu	a4,3(s0)
									uint8_t calc_bcc0 = (uint8_t)(0x88u ^ d[0] ^ d[1] ^ d[2]);
200010e4:	00a8c7b3          	xor	a5,a7,a0
200010e8:	00f847b3          	xor	a5,a6,a5
									if (bcc0 == calc_bcc0 && bcc1 == calc_bcc1) {
200010ec:	0887c793          	xori	a5,a5,136
200010f0:	22f71363          	bne	a4,a5,20001316 <main_task_loop+0x484>
									uint8_t calc_bcc1 = (uint8_t)(d[4] ^ d[5] ^ d[6] ^ d[7]);
200010f4:	00444583          	lbu	a1,4(s0)
200010f8:	00544603          	lbu	a2,5(s0)
200010fc:	00644683          	lbu	a3,6(s0)
20001100:	00744703          	lbu	a4,7(s0)
20001104:	00c5c7b3          	xor	a5,a1,a2
									if (bcc0 == calc_bcc0 && bcc1 == calc_bcc1) {
20001108:	00844303          	lbu	t1,8(s0)
									uint8_t calc_bcc1 = (uint8_t)(d[4] ^ d[5] ^ d[6] ^ d[7]);
2000110c:	8fb5                	xor	a5,a5,a3
									if (bcc0 == calc_bcc0 && bcc1 == calc_bcc1) {
2000110e:	8fb9                	xor	a5,a5,a4
20001110:	20f31363          	bne	t1,a5,20001316 <main_task_loop+0x484>
										gs_picc_uid[0] = d[0];
20001114:	c3418793          	addi	a5,gp,-972 # 20001460 <gs_picc_uid>
20001118:	01178023          	sb	a7,0(a5) # e000f000 <_eusrstack+0xbffef000>
										gs_picc_uid[1] = d[1];
2000111c:	010780a3          	sb	a6,1(a5)
										gs_picc_uid[2] = d[2];
20001120:	00a78123          	sb	a0,2(a5)
										gs_picc_uid[3] = d[4];
20001124:	00b781a3          	sb	a1,3(a5)
										gs_picc_uid[4] = d[5];
20001128:	00c78223          	sb	a2,4(a5)
										gs_picc_uid[5] = d[6];
2000112c:	00d782a3          	sb	a3,5(a5)
										gs_picc_uid[6] = d[7];
20001130:	00e78323          	sb	a4,6(a5)

										res = PcdReq(CMD_ANTICOLL2, g_nfca_pcd_recv_buf, 7);
										if (res == PCD_NO_ERROR) {
											res = PcdReq(CMD_ANTICOLL3, /*0x20*/0, 2);
											if (res == PCD_NO_ERROR) {
												uuid_len = 10;
20001134:	4d81                	li	s11,0
											// uid1 error
										}
									}
									else {
										// 7 byte uid
										uuid_len = 7;
20001136:	4d1d                	li	s10,7
							// next 2: ATQA little-endian
							// last 1: SAK
							uint8_t info[1 + 1 + 10 + 2 + 1];
							uint8_t info_len = 0;
							info[info_len++] = 0xA5;
							info[info_len++] = (uint8_t)uuid_len;
20001138:	0ffd7c93          	zext.b	s9,s10
							info[info_len++] = 0xA5;
2000113c:	fa500793          	li	a5,-91
							memcpy(&info[info_len], gs_picc_uid, uuid_len);
20001140:	866a                	mv	a2,s10
20001142:	c3418593          	addi	a1,gp,-972 # 20001460 <gs_picc_uid>
20001146:	01210513          	addi	a0,sp,18
							info[info_len++] = 0xA5;
2000114a:	00f10823          	sb	a5,16(sp)
							info[info_len++] = (uint8_t)uuid_len;
2000114e:	019108a3          	sb	s9,17(sp)
							memcpy(&info[info_len], gs_picc_uid, uuid_len);
20001152:	e0001097          	auipc	ra,0xe0001
20001156:	e98080e7          	jalr	-360(ra) # 1fea <memcpy>
							info_len += (uint8_t)uuid_len;
							info[info_len++] = (uint8_t)(atqa & 0xff);
2000115a:	0818                	addi	a4,sp,16
2000115c:	010c8793          	addi	a5,s9,16
20001160:	97ba                	add	a5,a5,a4
20001162:	0ff9f693          	zext.b	a3,s3
20001166:	fed78923          	sb	a3,-14(a5)
							info[info_len++] = (uint8_t)(atqa >> 8);
2000116a:	010c8793          	addi	a5,s9,16
2000116e:	97ba                	add	a5,a5,a4
20001170:	4089d613          	srai	a2,s3,0x8
20001174:	fec789a3          	sb	a2,-13(a5)
							info[info_len++] = (uint8_t)sak;
20001178:	010c8793          	addi	a5,s9,16
2000117c:	0ffdf493          	zext.b	s1,s11
20001180:	97ba                	add	a5,a5,a4
20001182:	005c8593          	addi	a1,s9,5
20001186:	fe978a23          	sb	s1,-12(a5)
							while (g_usb_tx_len) { }
2000118a:	c221d783          	lhu	a5,-990(gp) # 2000144e <g_usb_tx_len>
2000118e:	fff5                	bnez	a5,2000118a <main_task_loop+0x2f8>
							usb_tx_queue_message(info, info_len);
20001190:	0808                	addi	a0,sp,16
20001192:	c636                	sw	a3,12(sp)
20001194:	e0001097          	auipc	ra,0xe0001
20001198:	f92080e7          	jalr	-110(ra) # 2126 <usb_tx_queue_message.isra.0>
							usb_tx_pump();
2000119c:	e0001097          	auipc	ra,0xe0001
200011a0:	ee4080e7          	jalr	-284(ra) # 2080 <usb_tx_pump>

							// Card is fully selected, enter interaction mode
							// This function IS allowed to block because we are in a session
							card_interaction(uuid_len, atqa, sak);
200011a4:	866e                	mv	a2,s11
200011a6:	85ce                	mv	a1,s3
200011a8:	856a                	mv	a0,s10
200011aa:	3a1d                	jal	20000ae0 <card_interaction>

							// Clean up the NFC side before we touch audio / SK6812.
							PcdReq(CMD_HALT, 0, 0);
200011ac:	4601                	li	a2,0
200011ae:	4581                	li	a1,0
200011b0:	05000513          	li	a0,80
200011b4:	cccff0ef          	jal	20000680 <PcdReq>
	R8_NFC_STATUS = 0;
200011b8:	4000e7b7          	lui	a5,0x4000e
200011bc:	000780a3          	sb	zero,1(a5) # 4000e001 <_eusrstack+0x1ffee001>
	R8_NFC_CMD = 0;
200011c0:	4000e7b7          	lui	a5,0x4000e
200011c4:	00078023          	sb	zero,0(a5) # 4000e000 <_eusrstack+0x1ffee000>
200011c8:	4641                	li	a2,16
200011ca:	e000e7b7          	lui	a5,0xe000e
	uint8_t b = (sak & 0x1Fu) + 4u;
200011ce:	88fd                	andi	s1,s1,31
200011d0:	18c7a223          	sw	a2,388(a5) # e000e184 <_eusrstack+0xbffee184>
200011d4:	0491                	addi	s1,s1,4
	if (b > SK6812_BRIGHT) b = SK6812_BRIGHT;
200011d6:	47e1                	li	a5,24
200011d8:	46b2                	lw	a3,12(sp)
200011da:	8626                	mv	a2,s1
200011dc:	0097f363          	bgeu	a5,s1,200011e2 <main_task_loop+0x350>
200011e0:	4661                	li	a2,24
	uint8_t r = (uid_len ? ((gs_picc_uid[0] * 5u) & 0x1Fu) : 8u) + 4u;
200011e2:	c3418793          	addi	a5,gp,-972 # 20001460 <gs_picc_uid>
200011e6:	0007c783          	lbu	a5,0(a5)
200011ea:	4595                	li	a1,5
	if (r > SK6812_BRIGHT) r = SK6812_BRIGHT;
200011ec:	4561                	li	a0,24
	uint8_t r = (uid_len ? ((gs_picc_uid[0] * 5u) & 0x1Fu) : 8u) + 4u;
200011ee:	02b787b3          	mul	a5,a5,a1
	sk6812_set_grbw(g, r, b, SK6812_W_BRIGHT);
200011f2:	0ff67613          	zext.b	a2,a2
200011f6:	c3418d13          	addi	s10,gp,-972 # 20001460 <gs_picc_uid>
	uint8_t r = (uid_len ? ((gs_picc_uid[0] * 5u) & 0x1Fu) : 8u) + 4u;
200011fa:	8bfd                	andi	a5,a5,31
200011fc:	0791                	addi	a5,a5,4
	if (r > SK6812_BRIGHT) r = SK6812_BRIGHT;
200011fe:	85be                	mv	a1,a5
20001200:	00f57363          	bgeu	a0,a5,20001206 <main_task_loop+0x374>
20001204:	45e1                	li	a1,24
	uint8_t g = ((uint8_t)(atqa) & 0x1Fu) + 4u;
20001206:	01f6f793          	andi	a5,a3,31
2000120a:	0791                	addi	a5,a5,4
	if (g > SK6812_BRIGHT) g = SK6812_BRIGHT;
2000120c:	46e1                	li	a3,24
	sk6812_set_grbw(g, r, b, SK6812_W_BRIGHT);
2000120e:	0ff5f593          	zext.b	a1,a1
	if (g > SK6812_BRIGHT) g = SK6812_BRIGHT;
20001212:	853e                	mv	a0,a5
20001214:	00f6f363          	bgeu	a3,a5,2000121a <main_task_loop+0x388>
20001218:	4561                	li	a0,24
	sk6812_set_grbw(g, r, b, SK6812_W_BRIGHT);
2000121a:	03f57513          	andi	a0,a0,63
2000121e:	e0000097          	auipc	ra,0xe0000
20001222:	7c6080e7          	jalr	1990(ra) # 19e4 <sk6812_set_grbw.constprop.0>
	audio_init();
20001226:	e0001097          	auipc	ra,0xe0001
2000122a:	81a080e7          	jalr	-2022(ra) # 1a40 <audio_init>
	if (note_count > 8u) note_count = 8u;
2000122e:	46a1                	li	a3,8
20001230:	87e6                	mv	a5,s9
20001232:	0196f363          	bgeu	a3,s9,20001238 <main_task_loop+0x3a6>
20001236:	47a1                	li	a5,8
		GPIO_ResetBits(AUDIO_OUTPUT_PIN);
20001238:	400019b7          	lui	s3,0x40001
		Delay_Ms(duration_ms);
2000123c:	0016e4b7          	lui	s1,0x16e
	if (note_count > 8u) note_count = 8u;
20001240:	0ff7fd93          	zext.b	s11,a5
20001244:	4701                	li	a4,0
		uint16_t duration_ms = 90u + ((uint16_t)((b >> 3) & 0x03u) * 30u);
20001246:	4679                	li	a2,30
		GPIO_ResetBits(AUDIO_OUTPUT_PIN);
20001248:	0cc98993          	addi	s3,s3,204 # 400010cc <_eusrstack+0x1ffe10cc>
2000124c:	4c85                	li	s9,1
		Delay_Ms(duration_ms);
2000124e:	a0048493          	addi	s1,s1,-1536 # 16da00 <ch585_grand_finale.c.edbc3f23+0x169b63>
		uint8_t b = uid[i];
20001252:	00ed07b3          	add	a5,s10,a4
20001256:	0007c783          	lbu	a5,0(a5)
2000125a:	c63a                	sw	a4,12(sp)
		uint16_t duration_ms = 90u + ((uint16_t)((b >> 3) & 0x03u) * 30u);
2000125c:	0037d593          	srli	a1,a5,0x3
20001260:	898d                	andi	a1,a1,3
20001262:	02c585b3          	mul	a1,a1,a2
		uint16_t hz = g_uid_scale[b & 0x07u];
20001266:	8b9d                	andi	a5,a5,7
20001268:	0786                	slli	a5,a5,0x1
2000126a:	97de                	add	a5,a5,s7
		play_tone(hz, duration_ms);
2000126c:	0007d503          	lhu	a0,0(a5)
		uint16_t duration_ms = 90u + ((uint16_t)((b >> 3) & 0x03u) * 30u);
20001270:	05a58593          	addi	a1,a1,90
		play_tone(hz, duration_ms);
20001274:	05c2                	slli	a1,a1,0x10
20001276:	81c1                	srli	a1,a1,0x10
20001278:	e0000097          	auipc	ra,0xe0000
2000127c:	3f4080e7          	jalr	1012(ra) # 166c <play_tone>
		Delay_Ms(duration_ms);
20001280:	8526                	mv	a0,s1
		GPIO_ResetBits(AUDIO_OUTPUT_PIN);
20001282:	0199a023          	sw	s9,0(s3)
		Delay_Ms(duration_ms);
20001286:	e0000097          	auipc	ra,0xe0000
2000128a:	24a080e7          	jalr	586(ra) # 14d0 <DelaySysTick>
	for (uint8_t i = 0; i < note_count; i++)
2000128e:	4732                	lw	a4,12(sp)
20001290:	4679                	li	a2,30
20001292:	0705                	addi	a4,a4,1 # 4000e001 <_eusrstack+0x1ffee001>
20001294:	0ff77793          	zext.b	a5,a4
20001298:	fbb7ede3          	bltu	a5,s11,20001252 <main_task_loop+0x3c0>
	sk6812_set_grbw(g, r, b, SK6812_W_BRIGHT);
2000129c:	4601                	li	a2,0
2000129e:	4581                	li	a1,0
200012a0:	4501                	li	a0,0
200012a2:	e0000097          	auipc	ra,0xe0000
200012a6:	742080e7          	jalr	1858(ra) # 19e4 <sk6812_set_grbw.constprop.0>
	return (uint64_t)funSysTick32();
200012aa:	e000f7b7          	lui	a5,0xe000f
200012ae:	0087a983          	lw	s3,8(a5) # e000f008 <_eusrstack+0xbffef008>
			if (saw_card_response && !played_full_feedback) {
				audio_play_detect_chirp();
			}

			// Schedule next scan for 333ms from NOW
			next_scan_time = now_ticks() + Ticks_from_Ms(333);
200012b2:	013d14b7          	lui	s1,0x13d1
200012b6:	0c048493          	addi	s1,s1,192 # 13d10c0 <ch585_grand_finale.c.edbc3f23+0x13cd223>
200012ba:	94ce                	add	s1,s1,s3
200012bc:	0134b9b3          	sltu	s3,s1,s3
200012c0:	b9dd                	j	20000fb6 <main_task_loop+0x124>
						r = (uint16_t)PcdReq(CMD_REQA, 0, 0);
200012c2:	4601                	li	a2,0
200012c4:	4581                	li	a1,0
200012c6:	02600513          	li	a0,38
200012ca:	bb6ff0ef          	jal	20000680 <PcdReq>
200012ce:	01051493          	slli	s1,a0,0x10
200012d2:	80c1                	srli	s1,s1,0x10
					if (r == PCD_NO_ERROR && g_nfca_pcd_recv_bits >= (2 * 9)) break;
200012d4:	d8048fe3          	beqz	s1,20001072 <main_task_loop+0x1e0>
200012d8:	b355                	j	2000107c <main_task_loop+0x1ea>
										gs_picc_uid[3] = g_nfca_pcd_recv_buf[0];
200012da:	00c481a3          	sb	a2,3(s1)
										res = PcdReq(CMD_ANTICOLL2, g_nfca_pcd_recv_buf, 7);
200012de:	25018593          	addi	a1,gp,592 # 20001a7c <g_nfca_pcd_recv_buf>
200012e2:	461d                	li	a2,7
200012e4:	09500513          	li	a0,149
										gs_picc_uid[4] = g_nfca_pcd_recv_buf[1];
200012e8:	00d48223          	sb	a3,4(s1)
										gs_picc_uid[5] = g_nfca_pcd_recv_buf[2];
200012ec:	00e482a3          	sb	a4,5(s1)
										gs_picc_uid[6] = g_nfca_pcd_recv_buf[3];
200012f0:	00f48323          	sb	a5,6(s1)
										res = PcdReq(CMD_ANTICOLL2, g_nfca_pcd_recv_buf, 7);
200012f4:	b8cff0ef          	jal	20000680 <PcdReq>
										if (res == PCD_NO_ERROR) {
200012f8:	e2051ee3          	bnez	a0,20001134 <main_task_loop+0x2a2>
											sak = g_nfca_pcd_recv_buf[0];
200012fc:	00044d83          	lbu	s11,0(s0)
20001300:	bd1d                	j	20001136 <main_task_loop+0x2a4>
							gs_picc_uid[0] = g_nfca_pcd_recv_buf[0];
20001302:	c2b1aa23          	sw	a1,-972(gp) # 20001460 <gs_picc_uid>
							res = PcdReq(CMD_ANTICOLL1, g_nfca_pcd_recv_buf, 7);
20001306:	461d                	li	a2,7
20001308:	85a2                	mv	a1,s0
2000130a:	09300513          	li	a0,147
2000130e:	b72ff0ef          	jal	20000680 <PcdReq>
							uuid_len = 4;
20001312:	4d11                	li	s10,4
20001314:	aa01                	j	20001424 <main_task_loop+0x592>
						saw_card_response = 1;
20001316:	4705                	li	a4,1
	R8_NFC_STATUS = 0;
20001318:	4000e7b7          	lui	a5,0x4000e
2000131c:	000780a3          	sb	zero,1(a5) # 4000e001 <_eusrstack+0x1ffee001>
	R8_NFC_CMD = 0;
20001320:	4000e7b7          	lui	a5,0x4000e
20001324:	00078023          	sb	zero,0(a5) # 4000e000 <_eusrstack+0x1ffee000>
20001328:	46c1                	li	a3,16
2000132a:	e000e7b7          	lui	a5,0xe000e
2000132e:	18d7a223          	sw	a3,388(a5) # e000e184 <_eusrstack+0xbffee184>
			if (saw_card_response && !played_full_feedback) {
20001332:	df25                	beqz	a4,200012aa <main_task_loop+0x418>
	audio_init();
20001334:	e0000097          	auipc	ra,0xe0000
20001338:	70c080e7          	jalr	1804(ra) # 1a40 <audio_init>
	play_tone(988u, 28u);
2000133c:	45f1                	li	a1,28
2000133e:	3dc00513          	li	a0,988
20001342:	e0000097          	auipc	ra,0xe0000
20001346:	32a080e7          	jalr	810(ra) # 166c <play_tone>
		GPIO_ResetBits(AUDIO_OUTPUT_PIN);
2000134a:	400017b7          	lui	a5,0x40001
2000134e:	0cc78793          	addi	a5,a5,204 # 400010cc <_eusrstack+0x1ffe10cc>
20001352:	4705                	li	a4,1
		Delay_Ms(duration_ms);
20001354:	00131537          	lui	a0,0x131
		GPIO_ResetBits(AUDIO_OUTPUT_PIN);
20001358:	c398                	sw	a4,0(a5)
		Delay_Ms(duration_ms);
2000135a:	b0050513          	addi	a0,a0,-1280 # 130b00 <ch585_grand_finale.c.edbc3f23+0x12cc63>
2000135e:	e0000097          	auipc	ra,0xe0000
20001362:	172080e7          	jalr	370(ra) # 14d0 <DelaySysTick>
	play_tone(1319u, 36u);
20001366:	02400593          	li	a1,36
2000136a:	52700513          	li	a0,1319
2000136e:	e0000097          	auipc	ra,0xe0000
20001372:	2fe080e7          	jalr	766(ra) # 166c <play_tone>
}
20001376:	bf15                	j	200012aa <main_task_loop+0x418>
			saw_card_response = 0;
20001378:	4701                	li	a4,0
2000137a:	bf79                	j	20001318 <main_task_loop+0x486>
							if(g_nfca_pcd_recv_buf[0] == 0x88) {
2000137c:	00044d03          	lbu	s10,0(s0)
20001380:	08800613          	li	a2,136
								gs_picc_uid[0] = g_nfca_pcd_recv_buf[1];
20001384:	00144703          	lbu	a4,1(s0)
								gs_picc_uid[1] = g_nfca_pcd_recv_buf[2];
20001388:	00244783          	lbu	a5,2(s0)
								gs_picc_uid[2] = g_nfca_pcd_recv_buf[3];
2000138c:	00344683          	lbu	a3,3(s0)
							if(g_nfca_pcd_recv_buf[0] == 0x88) {
20001390:	2501a583          	lw	a1,592(gp) # 20001a7c <g_nfca_pcd_recv_buf>
20001394:	f6cd17e3          	bne	s10,a2,20001302 <main_task_loop+0x470>
								gs_picc_uid[0] = g_nfca_pcd_recv_buf[1];
20001398:	c3418493          	addi	s1,gp,-972 # 20001460 <gs_picc_uid>
							res = PcdReq(CMD_ANTICOLL1, g_nfca_pcd_recv_buf, 7);
2000139c:	461d                	li	a2,7
2000139e:	85a2                	mv	a1,s0
200013a0:	09300513          	li	a0,147
								gs_picc_uid[0] = g_nfca_pcd_recv_buf[1];
200013a4:	00e48023          	sb	a4,0(s1)
								gs_picc_uid[1] = g_nfca_pcd_recv_buf[2];
200013a8:	00f480a3          	sb	a5,1(s1)
								gs_picc_uid[2] = g_nfca_pcd_recv_buf[3];
200013ac:	00d48123          	sb	a3,2(s1)
							res = PcdReq(CMD_ANTICOLL1, g_nfca_pcd_recv_buf, 7);
200013b0:	ad0ff0ef          	jal	20000680 <PcdReq>
							if (res == PCD_NO_ERROR) {
200013b4:	f12d                	bnez	a0,20001316 <main_task_loop+0x484>
								res = PcdReq(CMD_ANTICOLL2, /*0x20*/0, 2);
200013b6:	4609                	li	a2,2
200013b8:	4581                	li	a1,0
200013ba:	09500513          	li	a0,149
200013be:	ac2ff0ef          	jal	20000680 <PcdReq>
								if (res == PCD_NO_ERROR) {
200013c2:	f931                	bnez	a0,20001316 <main_task_loop+0x484>
									if(g_nfca_pcd_recv_buf[0] == 0x88) {
200013c4:	00044603          	lbu	a2,0(s0)
										gs_picc_uid[3] = g_nfca_pcd_recv_buf[1];
200013c8:	00144683          	lbu	a3,1(s0)
										gs_picc_uid[4] = g_nfca_pcd_recv_buf[2];
200013cc:	00244703          	lbu	a4,2(s0)
										gs_picc_uid[5] = g_nfca_pcd_recv_buf[3];
200013d0:	00344783          	lbu	a5,3(s0)
									if(g_nfca_pcd_recv_buf[0] == 0x88) {
200013d4:	f1a613e3          	bne	a2,s10,200012da <main_task_loop+0x448>
										res = PcdReq(CMD_ANTICOLL2, g_nfca_pcd_recv_buf, 7);
200013d8:	461d                	li	a2,7
200013da:	25018593          	addi	a1,gp,592 # 20001a7c <g_nfca_pcd_recv_buf>
200013de:	09500513          	li	a0,149
										gs_picc_uid[3] = g_nfca_pcd_recv_buf[1];
200013e2:	00d481a3          	sb	a3,3(s1)
										gs_picc_uid[4] = g_nfca_pcd_recv_buf[2];
200013e6:	00e48223          	sb	a4,4(s1)
										gs_picc_uid[5] = g_nfca_pcd_recv_buf[3];
200013ea:	00f482a3          	sb	a5,5(s1)
										res = PcdReq(CMD_ANTICOLL2, g_nfca_pcd_recv_buf, 7);
200013ee:	a92ff0ef          	jal	20000680 <PcdReq>
										if (res == PCD_NO_ERROR) {
200013f2:	f115                	bnez	a0,20001316 <main_task_loop+0x484>
											res = PcdReq(CMD_ANTICOLL3, /*0x20*/0, 2);
200013f4:	4609                	li	a2,2
200013f6:	4581                	li	a1,0
200013f8:	09700513          	li	a0,151
200013fc:	a84ff0ef          	jal	20000680 <PcdReq>
20001400:	8daa                	mv	s11,a0
											if (res == PCD_NO_ERROR) {
20001402:	f911                	bnez	a0,20001316 <main_task_loop+0x484>
												gs_picc_uid[6] = g_nfca_pcd_recv_buf[0];
20001404:	2501d783          	lhu	a5,592(gp) # 20001a7c <g_nfca_pcd_recv_buf>
												res = PcdReq(CMD_ANTICOLL3, g_nfca_pcd_recv_buf, 7);
20001408:	461d                	li	a2,7
2000140a:	25018593          	addi	a1,gp,592 # 20001a7c <g_nfca_pcd_recv_buf>
												gs_picc_uid[6] = g_nfca_pcd_recv_buf[0];
2000140e:	00f49323          	sh	a5,6(s1)
												gs_picc_uid[8] = g_nfca_pcd_recv_buf[2];
20001412:	00245783          	lhu	a5,2(s0)
												res = PcdReq(CMD_ANTICOLL3, g_nfca_pcd_recv_buf, 7);
20001416:	09700513          	li	a0,151
												uuid_len = 10;
2000141a:	4d29                	li	s10,10
												gs_picc_uid[8] = g_nfca_pcd_recv_buf[2];
2000141c:	00f49423          	sh	a5,8(s1)
												res = PcdReq(CMD_ANTICOLL3, g_nfca_pcd_recv_buf, 7);
20001420:	a60ff0ef          	jal	20000680 <PcdReq>
							if (res == PCD_NO_ERROR) {
20001424:	d0051ae3          	bnez	a0,20001138 <main_task_loop+0x2a6>
								sak = g_nfca_pcd_recv_buf[0];
20001428:	00044d83          	lbu	s11,0(s0)
						if(uuid_len) {
2000142c:	b331                	j	20001138 <main_task_loop+0x2a6>
	...

Disassembly of section .text:

000014d0 <DelaySysTick>:
    14d0:	e000f7b7          	lui	a5,0xe000f
    14d4:	479c                	lw	a5,8(a5)
    14d6:	e000f737          	lui	a4,0xe000f
    14da:	953e                	add	a0,a0,a5
    14dc:	471c                	lw	a5,8(a4)
    14de:	8f89                	sub	a5,a5,a0
    14e0:	fe07cee3          	bltz	a5,14dc <DelaySysTick+0xc>
    14e4:	8082                	ret

000014e6 <USBFS_InternalFinishSetup>:
	USBFSCTX.endpoint_mode[1] = FUSB_EP1_MODE;
    14e6:	200027b7          	lui	a5,0x20002
    14ea:	17c78793          	addi	a5,a5,380 # 2000217c <USBFSCTX>
    14ee:	4705                	li	a4,1
    14f0:	0ce7aa23          	sw	a4,212(a5)
	USBFS->UEP4_1_MOD |= USBFS_UEP1_TX_EN;
    14f4:	40008737          	lui	a4,0x40008
    14f8:	00c74683          	lbu	a3,12(a4) # 4000800c <_eusrstack+0x1ffe800c>
    14fc:	0406e693          	ori	a3,a3,64
    1500:	00d70623          	sb	a3,12(a4)
	USBFSCTX.endpoint_mode[2] = FUSB_EP2_MODE;
    1504:	56fd                	li	a3,-1
    1506:	0cd7ac23          	sw	a3,216(a5)
	USBFS->UEP2_3_MOD |= USBFS_UEP2_RX_EN;
    150a:	00d74683          	lbu	a3,13(a4)
    150e:	0086e693          	ori	a3,a3,8
    1512:	00d706a3          	sb	a3,13(a4)
		if (i != 4) UEP_DMA(i) = (uintptr_t)USBFSCTX.ENDPOINTS[i];
    1516:	200026b7          	lui	a3,0x20002
    151a:	18c68693          	addi	a3,a3,396 # 2000218c <USBFSCTX+0x10>
    151e:	00d71823          	sh	a3,16(a4)
    1522:	200026b7          	lui	a3,0x20002
    1526:	40008737          	lui	a4,0x40008
    152a:	1cc68693          	addi	a3,a3,460 # 200021cc <USBFSCTX+0x50>
    152e:	00d71a23          	sh	a3,20(a4) # 40008014 <_eusrstack+0x1ffe8014>
    1532:	200026b7          	lui	a3,0x20002
    1536:	40008737          	lui	a4,0x40008
    153a:	20c68693          	addi	a3,a3,524 # 2000220c <USBFSCTX+0x90>
    153e:	00d71c23          	sh	a3,24(a4) # 40008018 <_eusrstack+0x1ffe8018>
	UEP_CTRL_TX(0) = USBFS_UEP_T_RES_NAK | USBFS_UEP_R_RES_ACK | CHECK_USBFS_UEP_T_AUTO_TOG;
    1542:	40008737          	lui	a4,0x40008
    1546:	46c9                	li	a3,18
    1548:	02d70123          	sb	a3,34(a4) # 40008022 <_eusrstack+0x1ffe8022>
			UEP_CTRL_TX(i) = USBFS_UEP_T_RES_NAK;
    154c:	40008737          	lui	a4,0x40008
    1550:	4689                	li	a3,2
    1552:	02d70323          	sb	a3,38(a4) # 40008026 <_eusrstack+0x1ffe8026>
		USBFSCTX.USBFS_Endp_Busy[i] = 0;
    1556:	0e0780a3          	sb	zero,225(a5)
			UEP_CTRL_TX(i) = USBFS_UEP_R_RES_ACK;
    155a:	40008737          	lui	a4,0x40008
    155e:	02070523          	sb	zero,42(a4) # 4000802a <_eusrstack+0x1ffe802a>
		USBFSCTX.USBFS_Endp_Busy[i] = 0;
    1562:	0e078123          	sb	zero,226(a5)
}
    1566:	8082                	ret

00001568 <sk6812_send_bit_0>:
	GPIO_SetBits(STATUS_SK6812_PIN);
    1568:	400017b7          	lui	a5,0x40001
    156c:	0d878793          	addi	a5,a5,216 # 400010d8 <_eusrstack+0x1ffe10d8>
    1570:	04000713          	li	a4,64
    1574:	c398                	sw	a4,0(a5)
	GPIO_ResetBits(STATUS_SK6812_PIN);
    1576:	400017b7          	lui	a5,0x40001
    157a:	0cc78793          	addi	a5,a5,204 # 400010cc <_eusrstack+0x1ffe10cc>
    157e:	c398                	sw	a4,0(a5)
	SK6812_ADD_N_NOPS(SK6812_T0L_NOPS);
    1580:	0001                	nop
    1582:	0001                	nop
    1584:	0001                	nop
    1586:	0001                	nop
    1588:	0001                	nop
    158a:	0001                	nop
    158c:	0001                	nop
    158e:	0001                	nop
    1590:	0001                	nop
    1592:	0001                	nop
    1594:	0001                	nop
    1596:	0001                	nop
    1598:	0001                	nop
    159a:	0001                	nop
    159c:	0001                	nop
    159e:	0001                	nop
    15a0:	0001                	nop
    15a2:	0001                	nop
    15a4:	0001                	nop
    15a6:	0001                	nop
    15a8:	0001                	nop
    15aa:	0001                	nop
    15ac:	0001                	nop
    15ae:	0001                	nop
    15b0:	0001                	nop
    15b2:	0001                	nop
    15b4:	0001                	nop
    15b6:	0001                	nop
    15b8:	0001                	nop
    15ba:	0001                	nop
    15bc:	0001                	nop
    15be:	0001                	nop
    15c0:	0001                	nop
    15c2:	0001                	nop
    15c4:	0001                	nop
    15c6:	0001                	nop
    15c8:	0001                	nop
    15ca:	0001                	nop
    15cc:	0001                	nop
    15ce:	0001                	nop
}
    15d0:	8082                	ret

000015d2 <sk6812_send_bit_1>:
	GPIO_SetBits(STATUS_SK6812_PIN);
    15d2:	400017b7          	lui	a5,0x40001
    15d6:	0d878793          	addi	a5,a5,216 # 400010d8 <_eusrstack+0x1ffe10d8>
    15da:	04000713          	li	a4,64
    15de:	c398                	sw	a4,0(a5)
	SK6812_ADD_N_NOPS(SK6812_T1H_NOPS);
    15e0:	0001                	nop
    15e2:	0001                	nop
    15e4:	0001                	nop
    15e6:	0001                	nop
    15e8:	0001                	nop
    15ea:	0001                	nop
    15ec:	0001                	nop
    15ee:	0001                	nop
    15f0:	0001                	nop
    15f2:	0001                	nop
    15f4:	0001                	nop
    15f6:	0001                	nop
	GPIO_ResetBits(STATUS_SK6812_PIN);
    15f8:	400017b7          	lui	a5,0x40001
    15fc:	0cc78793          	addi	a5,a5,204 # 400010cc <_eusrstack+0x1ffe10cc>
    1600:	c398                	sw	a4,0(a5)
	SK6812_ADD_N_NOPS(SK6812_T1L_NOPS);
    1602:	0001                	nop
    1604:	0001                	nop
    1606:	0001                	nop
    1608:	0001                	nop
    160a:	0001                	nop
    160c:	0001                	nop
    160e:	0001                	nop
    1610:	0001                	nop
    1612:	0001                	nop
    1614:	0001                	nop
    1616:	0001                	nop
    1618:	0001                	nop
    161a:	0001                	nop
    161c:	0001                	nop
    161e:	0001                	nop
    1620:	0001                	nop
    1622:	0001                	nop
    1624:	0001                	nop
    1626:	0001                	nop
    1628:	0001                	nop
    162a:	0001                	nop
    162c:	0001                	nop
    162e:	0001                	nop
    1630:	0001                	nop
    1632:	0001                	nop
    1634:	0001                	nop
    1636:	0001                	nop
    1638:	0001                	nop
}
    163a:	8082                	ret

0000163c <sk6812_send_byte>:
{
    163c:	1141                	addi	sp,sp,-16
    163e:	c422                	sw	s0,8(sp)
    1640:	c226                	sw	s1,4(sp)
    1642:	c606                	sw	ra,12(sp)
    1644:	842a                	mv	s0,a0
    1646:	44a1                	li	s1,8
		if (b & 0x80) sk6812_send_bit_1();
    1648:	01841793          	slli	a5,s0,0x18
    164c:	87e1                	srai	a5,a5,0x18
    164e:	0007dd63          	bgez	a5,1668 <sk6812_send_byte+0x2c>
    1652:	3741                	jal	15d2 <sk6812_send_bit_1>
		b <<= 1;
    1654:	0406                	slli	s0,s0,0x1
	for (int i = 0; i < 8; i++)
    1656:	14fd                	addi	s1,s1,-1
		b <<= 1;
    1658:	0ff47413          	zext.b	s0,s0
	for (int i = 0; i < 8; i++)
    165c:	f4f5                	bnez	s1,1648 <sk6812_send_byte+0xc>
}
    165e:	40b2                	lw	ra,12(sp)
    1660:	4422                	lw	s0,8(sp)
    1662:	4492                	lw	s1,4(sp)
    1664:	0141                	addi	sp,sp,16
    1666:	8082                	ret
		else          sk6812_send_bit_0();
    1668:	3701                	jal	1568 <sk6812_send_bit_0>
    166a:	b7ed                	j	1654 <sk6812_send_byte+0x18>

0000166c <play_tone>:
	if (!hz)
    166c:	ed09                	bnez	a0,1686 <play_tone+0x1a>
		Delay_Ms(duration_ms);
    166e:	653d                	lui	a0,0xf
    1670:	3c050513          	addi	a0,a0,960 # f3c0 <ch585_grand_finale.c.edbc3f23+0xb523>
    1674:	02a58533          	mul	a0,a1,a0
		GPIO_ResetBits(AUDIO_OUTPUT_PIN);
    1678:	400017b7          	lui	a5,0x40001
    167c:	0cc78793          	addi	a5,a5,204 # 400010cc <_eusrstack+0x1ffe10cc>
    1680:	4705                	li	a4,1
    1682:	c398                	sw	a4,0(a5)
		Delay_Ms(duration_ms);
    1684:	b5b1                	j	14d0 <DelaySysTick>
	uint16_t half_period_us = (uint16_t)(500000u / hz);
    1686:	0007a7b7          	lui	a5,0x7a
    168a:	12078793          	addi	a5,a5,288 # 7a120 <ch585_grand_finale.c.edbc3f23+0x76283>
    168e:	02a7d7b3          	divu	a5,a5,a0
{
    1692:	1101                	addi	sp,sp,-32
    1694:	cc22                	sw	s0,24(sp)
    1696:	ce06                	sw	ra,28(sp)
    1698:	ca26                	sw	s1,20(sp)
    169a:	c84a                	sw	s2,16(sp)
    169c:	c64e                	sw	s3,12(sp)
    169e:	c452                	sw	s4,8(sp)
    16a0:	c256                	sw	s5,4(sp)
    16a2:	c05a                	sw	s6,0(sp)
	uint16_t half_period_us = (uint16_t)(500000u / hz);
    16a4:	843e                	mv	s0,a5
    16a6:	07c2                	slli	a5,a5,0x10
    16a8:	83c1                	srli	a5,a5,0x10
	uint32_t cycles = ((uint32_t)hz * duration_ms) / 1000u;
    16aa:	02a585b3          	mul	a1,a1,a0
	if (!half_period_us) half_period_us = 1;
    16ae:	e391                	bnez	a5,16b2 <play_tone+0x46>
    16b0:	4405                	li	s0,1
    16b2:	0442                	slli	s0,s0,0x10
	if (!cycles) cycles = 1;
    16b4:	3e700793          	li	a5,999
    16b8:	8041                	srli	s0,s0,0x10
    16ba:	4485                	li	s1,1
    16bc:	00b7f663          	bgeu	a5,a1,16c8 <play_tone+0x5c>
	uint32_t cycles = ((uint32_t)hz * duration_ms) / 1000u;
    16c0:	3e800493          	li	s1,1000
    16c4:	0295d4b3          	divu	s1,a1,s1
		Delay_Us(half_period_us);
    16c8:	03e00793          	li	a5,62
		GPIO_SetBits(AUDIO_OUTPUT_PIN);
    16cc:	40001a37          	lui	s4,0x40001
		GPIO_ResetBits(AUDIO_OUTPUT_PIN);
    16d0:	400019b7          	lui	s3,0x40001
	for (uint32_t i = 0; i < cycles; i++)
    16d4:	4901                	li	s2,0
		GPIO_SetBits(AUDIO_OUTPUT_PIN);
    16d6:	0d8a0a13          	addi	s4,s4,216 # 400010d8 <_eusrstack+0x1ffe10d8>
    16da:	4a85                	li	s5,1
    16dc:	4b05                	li	s6,1
		GPIO_ResetBits(AUDIO_OUTPUT_PIN);
    16de:	0cc98993          	addi	s3,s3,204 # 400010cc <_eusrstack+0x1ffe10cc>
		Delay_Us(half_period_us);
    16e2:	02f40433          	mul	s0,s0,a5
    16e6:	8522                	mv	a0,s0
		GPIO_SetBits(AUDIO_OUTPUT_PIN);
    16e8:	016a2023          	sw	s6,0(s4)
		Delay_Us(half_period_us);
    16ec:	33d5                	jal	14d0 <DelaySysTick>
		Delay_Us(half_period_us);
    16ee:	8522                	mv	a0,s0
		GPIO_ResetBits(AUDIO_OUTPUT_PIN);
    16f0:	0159a023          	sw	s5,0(s3)
	for (uint32_t i = 0; i < cycles; i++)
    16f4:	0905                	addi	s2,s2,1
		Delay_Us(half_period_us);
    16f6:	3be9                	jal	14d0 <DelaySysTick>
	for (uint32_t i = 0; i < cycles; i++)
    16f8:	ff2497e3          	bne	s1,s2,16e6 <play_tone+0x7a>
}
    16fc:	40f2                	lw	ra,28(sp)
    16fe:	4462                	lw	s0,24(sp)
    1700:	44d2                	lw	s1,20(sp)
    1702:	4942                	lw	s2,16(sp)
    1704:	49b2                	lw	s3,12(sp)
    1706:	4a22                	lw	s4,8(sp)
    1708:	4a92                	lw	s5,4(sp)
    170a:	4b02                	lw	s6,0(sp)
    170c:	6105                	addi	sp,sp,32
    170e:	8082                	ret

00001710 <nfca_rx_finalize_from_hw>:
	g_nfca_pcd_recv_bits = R16_NFC_RXTX_LEN;
    1710:	4000e7b7          	lui	a5,0x4000e
    1714:	07a1                	addi	a5,a5,8 # 4000e008 <_eusrstack+0x1ffee008>
    1716:	0007d783          	lhu	a5,0(a5)
    171a:	07c2                	slli	a5,a5,0x10
    171c:	83c1                	srli	a5,a5,0x10
    171e:	c2f1a423          	sw	a5,-984(gp) # 20001454 <g_nfca_pcd_recv_bits>
	uint16_t received_words = (g_nfca_pcd_recv_bits + 15) / 16;
    1722:	c281a783          	lw	a5,-984(gp) # 20001454 <g_nfca_pcd_recv_bits>
	if (g_nfca_pcd_recv_word_idx < received_words) {
    1726:	c241d703          	lhu	a4,-988(gp) # 20001450 <g_nfca_pcd_recv_word_idx>
	uint16_t received_words = (g_nfca_pcd_recv_bits + 15) / 16;
    172a:	07bd                	addi	a5,a5,15
    172c:	8391                	srli	a5,a5,0x4
    172e:	07c2                	slli	a5,a5,0x10
    1730:	83c1                	srli	a5,a5,0x10
	if (g_nfca_pcd_recv_word_idx < received_words) {
    1732:	02f77a63          	bgeu	a4,a5,1766 <nfca_rx_finalize_from_hw+0x56>
		uint16_t words_to_drain = received_words - g_nfca_pcd_recv_word_idx;
    1736:	8f99                	sub	a5,a5,a4
		for (int i = 0; i < words_to_drain; i++) {
    1738:	07c2                	slli	a5,a5,0x10
			gs_nfca_data_buf[g_nfca_pcd_recv_word_idx++] = R16_NFC_FIFO;
    173a:	4000e5b7          	lui	a1,0x4000e
		for (int i = 0; i < words_to_drain; i++) {
    173e:	83c1                	srli	a5,a5,0x10
    1740:	4681                	li	a3,0
			gs_nfca_data_buf[g_nfca_pcd_recv_word_idx++] = R16_NFC_FIFO;
    1742:	05b1                	addi	a1,a1,12 # 4000e00c <_eusrstack+0x1ffee00c>
    1744:	55018613          	addi	a2,gp,1360 # 20001d7c <gs_nfca_data_buf>
    1748:	c241d703          	lhu	a4,-988(gp) # 20001450 <g_nfca_pcd_recv_word_idx>
		for (int i = 0; i < words_to_drain; i++) {
    174c:	0685                	addi	a3,a3,1
			gs_nfca_data_buf[g_nfca_pcd_recv_word_idx++] = R16_NFC_FIFO;
    174e:	00170813          	addi	a6,a4,1
    1752:	c3019223          	sh	a6,-988(gp) # 20001450 <g_nfca_pcd_recv_word_idx>
    1756:	0005d803          	lhu	a6,0(a1)
    175a:	0706                	slli	a4,a4,0x1
    175c:	9732                	add	a4,a4,a2
    175e:	01071023          	sh	a6,0(a4)
		for (int i = 0; i < words_to_drain; i++) {
    1762:	fef6c3e3          	blt	a3,a5,1748 <nfca_rx_finalize_from_hw+0x38>
}
    1766:	8082                	ret

00001768 <usb_rx_reset_assembly>:
	g_usb_rx_expected = 0;
    1768:	c2019723          	sh	zero,-978(gp) # 2000145a <g_usb_rx_expected>
	g_usb_rx_received = 0;
    176c:	c2019623          	sh	zero,-980(gp) # 20001458 <g_usb_rx_received>
	g_usb_rx_len_bytes = 0;
    1770:	c2018923          	sb	zero,-974(gp) # 2000145e <g_usb_rx_len_bytes>
	g_usb_rx_len_tmp0 = 0;
    1774:	c20188a3          	sb	zero,-975(gp) # 2000145d <g_usb_rx_len_tmp0>
	g_usb_rx_len_tmp1 = 0;
    1778:	c2018823          	sb	zero,-976(gp) # 2000145c <g_usb_rx_len_tmp1>
}
    177c:	8082                	ret

0000177e <nfca_pcd_start>:
	R8_NFC_CMD = 0x24;
    177e:	4000e7b7          	lui	a5,0x4000e
    1782:	02400713          	li	a4,36
    1786:	00e78023          	sb	a4,0(a5) # 4000e000 <_eusrstack+0x1ffee000>
	R32_NFC_DRV &= 0xe7ff;
    178a:	4bd8                	lw	a4,20(a5)
    178c:	66b9                	lui	a3,0xe
    178e:	7ff68693          	addi	a3,a3,2047 # e7ff <ch585_grand_finale.c.edbc3f23+0xa962>
    1792:	8f75                	and	a4,a4,a3
    1794:	cbd8                	sw	a4,20(a5)
	R32_NFC_DRV |= 0x0620;
    1796:	4bd8                	lw	a4,20(a5)
    1798:	62076713          	ori	a4,a4,1568
    179c:	cbd8                	sw	a4,20(a5)
}

// Clear Interrupt Pending
RV_STATIC_INLINE void NVIC_ClearPendingIRQ(IRQn_Type IRQn)
{
	NVIC->IPRR[((uint32_t)(IRQn) >> 5)] = (1 << ((uint32_t)(IRQn) & 0x1F));
    179e:	e000e7b7          	lui	a5,0xe000e
    17a2:	4741                	li	a4,16
    17a4:	28e7a223          	sw	a4,644(a5) # e000e284 <_eusrstack+0xbffee284>
	NVIC->IENR[((uint32_t)(IRQn) >> 5)] = (1 << ((uint32_t)(IRQn) & 0x1F));
    17a8:	10e7a223          	sw	a4,260(a5)
}
    17ac:	8082                	ret

000017ae <nfca_pcd_wait_comm_end>:
nfca_pcd_controller_state_t nfca_pcd_wait_comm_end(void) {
    17ae:	1101                	addi	sp,sp,-32
    17b0:	ca26                	sw	s1,20(sp)
    17b2:	c84a                	sw	s2,16(sp)
    17b4:	c64e                	sw	s3,12(sp)
    17b6:	6589                	lui	a1,0x2
    17b8:	c452                	sw	s4,8(sp)
    17ba:	ce06                	sw	ra,28(sp)
    17bc:	cc22                	sw	s0,24(sp)
    17be:	71258593          	addi	a1,a1,1810 # 2712 <descriptor_list+0x3e>
		uint32_t combined_words = data_buf[word_index];
    17c2:	55018493          	addi	s1,gp,1360 # 20001d7c <gs_nfca_data_buf>
			combined_words |= (uint32_t)data_buf[word_index + 1] << 16;
    17c6:	55218913          	addi	s2,gp,1362 # 20001d7e <gs_nfca_data_buf+0x2>
		recv_buf[bytes_processed] = (uint8_t)(nine_bit_packet & 0xFF);
    17ca:	25018993          	addi	s3,gp,592 # 20001a7c <g_nfca_pcd_recv_buf>
	if(g_nfca_pcd_comm_status > 2) {
    17ce:	c1e1c703          	lbu	a4,-994(gp) # 2000144a <g_nfca_pcd_comm_status>
    17d2:	4789                	li	a5,2
    17d4:	00e7ee63          	bltu	a5,a4,17f0 <nfca_pcd_wait_comm_end+0x42>
		if ((status != NFCA_PCD_CONTROLLER_STATE_FREE) || (overtimes > (NFCA_PCD_WAIT_MAX_MS * 10))) {
    17d8:	fff58413          	addi	s0,a1,-1
    17dc:	e05d                	bnez	s0,1882 <nfca_pcd_wait_comm_end+0xd4>
}
    17de:	40f2                	lw	ra,28(sp)
    17e0:	8522                	mv	a0,s0
    17e2:	4462                	lw	s0,24(sp)
    17e4:	44d2                	lw	s1,20(sp)
    17e6:	4942                	lw	s2,16(sp)
    17e8:	49b2                	lw	s3,12(sp)
    17ea:	4a22                	lw	s4,8(sp)
    17ec:	6105                	addi	sp,sp,32
    17ee:	8082                	ret
		if(g_nfca_pcd_intf_mode) {
    17f0:	c181c783          	lbu	a5,-1000(gp) # 20001444 <g_nfca_pcd_intf_mode>
    17f4:	e789                	bnez	a5,17fe <nfca_pcd_wait_comm_end+0x50>
		return g_nfca_pcd_comm_status;
    17f6:	c1e1c403          	lbu	s0,-994(gp) # 2000144a <g_nfca_pcd_comm_status>
		if ((status != NFCA_PCD_CONTROLLER_STATE_FREE) || (overtimes > (NFCA_PCD_WAIT_MAX_MS * 10))) {
    17fa:	dc79                	beqz	s0,17d8 <nfca_pcd_wait_comm_end+0x2a>
    17fc:	b7cd                	j	17de <nfca_pcd_wait_comm_end+0x30>
			R8_NFC_CMD &= 0xef;
    17fe:	4000e737          	lui	a4,0x4000e
    1802:	00074783          	lbu	a5,0(a4) # 4000e000 <_eusrstack+0x1ffee000>
    1806:	0ef7f793          	andi	a5,a5,239
    180a:	00f70023          	sb	a5,0(a4)
			g_nfca_pcd_recv_buf_len = nfca_pcd_separate_recv_data(gs_nfca_data_buf, g_nfca_pcd_recv_bits, g_nfca_pcd_buf_offset, g_nfca_pcd_recv_buf, g_nfca_parity_buf, NFCA_PCD_MAX_RECV_NUM);
    180e:	c281a503          	lw	a0,-984(gp) # 20001454 <g_nfca_pcd_recv_bits>
	uint32_t current_total_bit_pos = buf_offset;
    1812:	c161c603          	lbu	a2,-1002(gp) # 20001442 <g_nfca_pcd_buf_offset>
    1816:	0542                	slli	a0,a0,0x10
    1818:	8141                	srli	a0,a0,0x10
		if (bits_remaining < 9) {
    181a:	47a1                	li	a5,8
    181c:	fca7fde3          	bgeu	a5,a0,17f6 <nfca_pcd_wait_comm_end+0x48>
	for (bytes_processed = 0; bytes_processed < output_len; ++bytes_processed) {
    1820:	4701                	li	a4,0
		parity_buf[bytes_processed] = (uint8_t)((nine_bit_packet >> 8) & 0x01);
    1822:	15018813          	addi	a6,gp,336 # 2000197c <g_nfca_parity_buf>
	for (bytes_processed = 0; bytes_processed < output_len; ++bytes_processed) {
    1826:	10000893          	li	a7,256
		if (bits_remaining < 9) {
    182a:	4e25                	li	t3,9
    182c:	4ea1                	li	t4,8
		uint32_t word_index = current_total_bit_pos / 16;
    182e:	00465693          	srli	a3,a2,0x4
		uint32_t combined_words = data_buf[word_index];
    1832:	0686                	slli	a3,a3,0x1
    1834:	009687b3          	add	a5,a3,s1
		if (bit_pos_in_word > (16 - 9)) {
    1838:	00867f13          	andi	t5,a2,8
		uint32_t combined_words = data_buf[word_index];
    183c:	0007d783          	lhu	a5,0(a5)
		uint32_t bit_pos_in_word = current_total_bit_pos % 16;
    1840:	00f67313          	andi	t1,a2,15
		if (bit_pos_in_word > (16 - 9)) {
    1844:	000f0763          	beqz	t5,1852 <nfca_pcd_wait_comm_end+0xa4>
			combined_words |= (uint32_t)data_buf[word_index + 1] << 16;
    1848:	96ca                	add	a3,a3,s2
    184a:	0006d683          	lhu	a3,0(a3)
    184e:	06c2                	slli	a3,a3,0x10
    1850:	8fd5                	or	a5,a5,a3
		uint16_t nine_bit_packet = (combined_words >> bit_pos_in_word) & 0x1FF;
    1852:	0067d7b3          	srl	a5,a5,t1
		recv_buf[bytes_processed] = (uint8_t)(nine_bit_packet & 0xFF);
    1856:	013706b3          	add	a3,a4,s3
		uint16_t nine_bit_packet = (combined_words >> bit_pos_in_word) & 0x1FF;
    185a:	1ff7f793          	andi	a5,a5,511
		recv_buf[bytes_processed] = (uint8_t)(nine_bit_packet & 0xFF);
    185e:	00f68023          	sb	a5,0(a3)
		parity_buf[bytes_processed] = (uint8_t)((nine_bit_packet >> 8) & 0x01);
    1862:	010706b3          	add	a3,a4,a6
    1866:	83a1                	srli	a5,a5,0x8
    1868:	00f68023          	sb	a5,0(a3)
	for (bytes_processed = 0; bytes_processed < output_len; ++bytes_processed) {
    186c:	0705                	addi	a4,a4,1
		current_total_bit_pos += 9;
    186e:	0625                	addi	a2,a2,9
	for (bytes_processed = 0; bytes_processed < output_len; ++bytes_processed) {
    1870:	f91703e3          	beq	a4,a7,17f6 <nfca_pcd_wait_comm_end+0x48>
		if (bits_remaining < 9) {
    1874:	03c707b3          	mul	a5,a4,t3
    1878:	40f507b3          	sub	a5,a0,a5
    187c:	fafee9e3          	bltu	t4,a5,182e <nfca_pcd_wait_comm_end+0x80>
    1880:	bf9d                	j	17f6 <nfca_pcd_wait_comm_end+0x48>
		Delay_Us(100);
    1882:	6509                	lui	a0,0x2
    1884:	83850513          	addi	a0,a0,-1992 # 1838 <nfca_pcd_wait_comm_end+0x8a>
    1888:	31a1                	jal	14d0 <DelaySysTick>
		status = nfca_pcd_get_comm_status();
    188a:	85a2                	mv	a1,s0
    188c:	b789                	j	17ce <nfca_pcd_wait_comm_end+0x20>

0000188e <nfca_pcd_comm.part.0.constprop.0>:
	if (num_bits <= 3) {
    188e:	468d                	li	a3,3
    1890:	55018793          	addi	a5,gp,1360 # 20001d7c <gs_nfca_data_buf>
		return 0;
    1894:	4701                	li	a4,0
	if (num_bits <= 3) {
    1896:	04a6fc63          	bgeu	a3,a0,18ee <nfca_pcd_comm.part.0.constprop.0+0x60>
			data_buf[processed_bytes +i] = (uint16_t)send_buf[processed_bytes +i] | (parity_buf[processed_bytes +i] > 0 ? 0x0100 : 0);
    189a:	85aa                	mv	a1,a0
	int num_chunks = 0;
    189c:	4681                	li	a3,0
	while ((num_bits - processed_bytes) >= 8) {
    189e:	4e9d                	li	t4,7
		if ((processed_bytes + 8) > output_len) {
    18a0:	10800f13          	li	t5,264
			data_buf[processed_bytes +i] = (uint16_t)send_buf[processed_bytes +i] | (parity_buf[processed_bytes +i] > 0 ? 0x0100 : 0);
    18a4:	15018813          	addi	a6,gp,336 # 2000197c <g_nfca_parity_buf>
    18a8:	04018893          	addi	a7,gp,64 # 2000186c <g_nfca_pcd_send_buf>
	while ((num_bits - processed_bytes) >= 8) {
    18ac:	0abee263          	bltu	t4,a1,1950 <nfca_pcd_comm.part.0.constprop.0+0xc2>
	if (remaining_len > 0 && processed_bytes < output_len) {
    18b0:	c985                	beqz	a1,18e0 <nfca_pcd_comm.part.0.constprop.0+0x52>
    18b2:	10000613          	li	a2,256
    18b6:	02c70563          	beq	a4,a2,18e0 <nfca_pcd_comm.part.0.constprop.0+0x52>
		data_buf[num_chunks] = (uint16_t)send_buf[num_chunks] | (parity_buf[num_chunks] > 0 ? 0x0100 : 0);
    18ba:	15018713          	addi	a4,gp,336 # 2000197c <g_nfca_parity_buf>
    18be:	9736                	add	a4,a4,a3
    18c0:	00074703          	lbu	a4,0(a4)
    18c4:	04018593          	addi	a1,gp,64 # 2000186c <g_nfca_pcd_send_buf>
    18c8:	00169613          	slli	a2,a3,0x1
    18cc:	96ae                	add	a3,a3,a1
    18ce:	0006c683          	lbu	a3,0(a3)
    18d2:	00e03733          	snez	a4,a4
    18d6:	0722                	slli	a4,a4,0x8
    18d8:	963e                	add	a2,a2,a5
    18da:	8f55                	or	a4,a4,a3
    18dc:	00e61023          	sh	a4,0(a2)
	return ((num_bits / 8) *9) + (num_bits % 8);
    18e0:	00355713          	srli	a4,a0,0x3
    18e4:	46a5                	li	a3,9
    18e6:	02d70733          	mul	a4,a4,a3
    18ea:	891d                	andi	a0,a0,7
    18ec:	972a                	add	a4,a4,a0
	R8_NFC_STATUS = 0; // Clear control register
    18ee:	4000e6b7          	lui	a3,0x4000e
    18f2:	000680a3          	sb	zero,1(a3) # 4000e001 <_eusrstack+0x1ffee001>
    18f6:	4000e637          	lui	a2,0x4000e
	R8_NFC_CMD &= ~(0x11);
    18fa:	00064683          	lbu	a3,0(a2) # 4000e000 <_eusrstack+0x1ffee000>
    18fe:	0ee6f693          	andi	a3,a3,238
    1902:	00d60023          	sb	a3,0(a2)
		g_nfca_pcd_intf_mode = mode;
    1906:	4605                	li	a2,1
    1908:	c0c18c23          	sb	a2,-1000(gp) # 20001444 <g_nfca_pcd_intf_mode>
		g_nfca_pcd_buf_offset = offset;
    190c:	c0018b23          	sb	zero,-1002(gp) # 20001442 <g_nfca_pcd_buf_offset>
		g_nfca_pcd_crcerr_seen = 0;
    1910:	c0018ba3          	sb	zero,-1001(gp) # 20001443 <g_nfca_pcd_crcerr_seen>
		g_nfca_pcd_rx_status_reg = (g_nfca_pcd_intf_mode & 0x10) ? 0x36 : 0x26;
    1914:	02600613          	li	a2,38
    1918:	c0c183a3          	sb	a2,-1017(gp) # 20001433 <g_nfca_pcd_rx_status_reg>
	R16_NFC_RXTX_LEN = (uint16_t)prepared_byte_len;
    191c:	01071613          	slli	a2,a4,0x10
    1920:	8241                	srli	a2,a2,0x10
    1922:	4000e6b7          	lui	a3,0x4000e
    1926:	00c69423          	sh	a2,8(a3) # 4000e008 <_eusrstack+0x1ffee008>
	int num_words = (prepared_byte_len + 8) / 9;
    192a:	4625                	li	a2,9
    192c:	00870693          	addi	a3,a4,8
    1930:	02c6c6b3          	div	a3,a3,a2
	if (prepared_byte_len > 72) {
    1934:	04800613          	li	a2,72
    1938:	04e66863          	bltu	a2,a4,1988 <nfca_pcd_comm.part.0.constprop.0+0xfa>
			R16_NFC_FIFO = gs_nfca_data_buf[i];
    193c:	4000e637          	lui	a2,0x4000e
		for (int i = 0; i < num_words; i++) {
    1940:	4701                	li	a4,0
			R16_NFC_FIFO = gs_nfca_data_buf[i];
    1942:	0631                	addi	a2,a2,12 # 4000e00c <_eusrstack+0x1ffee00c>
		for (int i = 0; i < num_words; i++) {
    1944:	08e69963          	bne	a3,a4,19d6 <nfca_pcd_comm.part.0.constprop.0+0x148>
		g_nfca_pcd_send_fifo_bytes = num_words;
    1948:	01069793          	slli	a5,a3,0x10
    194c:	83c1                	srli	a5,a5,0x10
    194e:	a891                	j	19a2 <nfca_pcd_comm.part.0.constprop.0+0x114>
		if ((processed_bytes + 8) > output_len) {
    1950:	00870e13          	addi	t3,a4,8
    1954:	f9ee06e3          	beq	t3,t5,18e0 <nfca_pcd_comm.part.0.constprop.0+0x52>
			data_buf[processed_bytes +i] = (uint16_t)send_buf[processed_bytes +i] | (parity_buf[processed_bytes +i] > 0 ? 0x0100 : 0);
    1958:	01070633          	add	a2,a4,a6
    195c:	00064603          	lbu	a2,0(a2)
    1960:	01170fb3          	add	t6,a4,a7
    1964:	000fcf83          	lbu	t6,0(t6)
    1968:	00c03633          	snez	a2,a2
    196c:	00171313          	slli	t1,a4,0x1
    1970:	0622                	slli	a2,a2,0x8
    1972:	933e                	add	t1,t1,a5
    1974:	01f66633          	or	a2,a2,t6
    1978:	00c31023          	sh	a2,0(t1)
		for (int i = 0; i < 8; ++i) {
    197c:	0705                	addi	a4,a4,1
    197e:	fdc71de3          	bne	a4,t3,1958 <nfca_pcd_comm.part.0.constprop.0+0xca>
		num_chunks++;
    1982:	0685                	addi	a3,a3,1
    1984:	15e1                	addi	a1,a1,-8
    1986:	b71d                	j	18ac <nfca_pcd_comm.part.0.constprop.0+0x1e>
			R16_NFC_FIFO = gs_nfca_data_buf[i];
    1988:	4000e737          	lui	a4,0x4000e
    198c:	01078613          	addi	a2,a5,16
    1990:	0731                	addi	a4,a4,12 # 4000e00c <_eusrstack+0x1ffee00c>
    1992:	0007d583          	lhu	a1,0(a5)
		for (int i = 0; i < 8; i++) {
    1996:	0789                	addi	a5,a5,2
			R16_NFC_FIFO = gs_nfca_data_buf[i];
    1998:	00b71023          	sh	a1,0(a4)
		for (int i = 0; i < 8; i++) {
    199c:	fef61be3          	bne	a2,a5,1992 <nfca_pcd_comm.part.0.constprop.0+0x104>
    19a0:	47a1                	li	a5,8
		g_nfca_pcd_send_fifo_bytes = 8;
    19a2:	c0f19e23          	sh	a5,-996(gp) # 20001448 <g_nfca_pcd_send_fifo_bytes>
	g_nfca_pcd_send_total_bytes = num_words;
    19a6:	c0d19d23          	sh	a3,-998(gp) # 20001446 <g_nfca_pcd_send_total_bytes>
	g_nfca_pcd_comm_status = 1; // Status: Transmitting
    19aa:	4705                	li	a4,1
    19ac:	c0e18f23          	sb	a4,-994(gp) # 2000144a <g_nfca_pcd_comm_status>
	R16_NFC_INTF_STATUS = 9;
    19b0:	46a5                	li	a3,9
    19b2:	4000e7b7          	lui	a5,0x4000e
    19b6:	00d79223          	sh	a3,4(a5) # 4000e004 <_eusrstack+0x1ffee004>
	R8_NFC_STATUS = 9;
    19ba:	4000e7b7          	lui	a5,0x4000e
	R16_NFC_INTF_STATUS = 9;
    19be:	4000e737          	lui	a4,0x4000e
	R8_NFC_STATUS = 9;
    19c2:	00d780a3          	sb	a3,1(a5) # 4000e001 <_eusrstack+0x1ffee001>
	R8_NFC_CMD |= (mode ? 9 : 1);
    19c6:	00074783          	lbu	a5,0(a4) # 4000e000 <_eusrstack+0x1ffee000>
}
    19ca:	4501                	li	a0,0
	R8_NFC_CMD |= (mode ? 9 : 1);
    19cc:	0097e793          	ori	a5,a5,9
    19d0:	00f70023          	sb	a5,0(a4)
}
    19d4:	8082                	ret
			R16_NFC_FIFO = gs_nfca_data_buf[i];
    19d6:	0007d583          	lhu	a1,0(a5)
		for (int i = 0; i < num_words; i++) {
    19da:	0705                	addi	a4,a4,1
    19dc:	0789                	addi	a5,a5,2
			R16_NFC_FIFO = gs_nfca_data_buf[i];
    19de:	00b61023          	sh	a1,0(a2)
    19e2:	b78d                	j	1944 <nfca_pcd_comm.part.0.constprop.0+0xb6>

000019e4 <sk6812_set_grbw.constprop.0>:
static void sk6812_set_grbw(uint8_t g, uint8_t r, uint8_t b, uint8_t w)
    19e4:	1141                	addi	sp,sp,-16
    19e6:	c226                	sw	s1,4(sp)
    19e8:	c04a                	sw	s2,0(sp)
    19ea:	c606                	sw	ra,12(sp)
    19ec:	c422                	sw	s0,8(sp)
    19ee:	892e                	mv	s2,a1
    19f0:	84b2                	mv	s1,a2
    uint32_t result; __ASM volatile( ADD_ARCH_ZICSR "csrr %0," "mstatus": "=r"(result) );
    19f2:	30002473          	csrr	s0,mstatus
	uint32_t result; __ASM volatile( ADD_ARCH_ZICSR "csrr %0," "mstatus": "=r"(result) );
    19f6:	300027f3          	csrr	a5,mstatus
	result &= ~0x88; __ASM volatile( ADD_ARCH_ZICSR "csrw mstatus, %0" : : "r" (result) );
    19fa:	f777f793          	andi	a5,a5,-137
    19fe:	30079073          	csrw	mstatus,a5
	sk6812_send_byte(g);
    1a02:	392d                	jal	163c <sk6812_send_byte>
	sk6812_send_byte(r);
    1a04:	854a                	mv	a0,s2
    1a06:	391d                	jal	163c <sk6812_send_byte>
	sk6812_send_byte(b);
    1a08:	8526                	mv	a0,s1
    1a0a:	390d                	jal	163c <sk6812_send_byte>
	sk6812_send_byte(w);
    1a0c:	4501                	li	a0,0
    return (result & 0x08) != 0u;
    1a0e:	8821                	andi	s0,s0,8
    1a10:	3135                	jal	163c <sk6812_send_byte>
	if (irq_was_enabled) __enable_irq();
    1a12:	c419                	beqz	s0,1a20 <sk6812_set_grbw.constprop.0+0x3c>
	uint32_t result; __ASM volatile( ADD_ARCH_ZICSR "csrr %0," "mstatus": "=r"(result) );
    1a14:	300027f3          	csrr	a5,mstatus
	result |= 0x88;  __ASM volatile( ADD_ARCH_ZICSR "csrw mstatus, %0" : : "r" (result) );
    1a18:	0887e793          	ori	a5,a5,136
    1a1c:	30079073          	csrw	mstatus,a5
}
    1a20:	4422                	lw	s0,8(sp)
	GPIO_ResetBits(STATUS_SK6812_PIN);
    1a22:	400017b7          	lui	a5,0x40001
}
    1a26:	40b2                	lw	ra,12(sp)
    1a28:	4492                	lw	s1,4(sp)
    1a2a:	4902                	lw	s2,0(sp)
	GPIO_ResetBits(STATUS_SK6812_PIN);
    1a2c:	0cc78793          	addi	a5,a5,204 # 400010cc <_eusrstack+0x1ffe10cc>
    1a30:	04000713          	li	a4,64
    1a34:	c398                	sw	a4,0(a5)
	Delay_Ms(1);
    1a36:	653d                	lui	a0,0xf
    1a38:	3c050513          	addi	a0,a0,960 # f3c0 <ch585_grand_finale.c.edbc3f23+0xb523>
}
    1a3c:	0141                	addi	sp,sp,16
	Delay_Ms(1);
    1a3e:	bc49                	j	14d0 <DelaySysTick>

00001a40 <audio_init>:
	case GPIO_ModeOut_PP_5mA:
		*(&R32_PA_PD_DRV + OFFSET_FOR_GPIOB(pin)) &= ~(pin & ~PB);
		*(&R32_PA_DIR + OFFSET_FOR_GPIOB(pin))    |= (pin & ~PB);
		break;
	case GPIO_ModeOut_PP_20mA:
		*(&R32_PA_PD_DRV + OFFSET_FOR_GPIOB(pin)) |= (pin & ~PB);
    1a40:	400017b7          	lui	a5,0x40001
    1a44:	0d478793          	addi	a5,a5,212 # 400010d4 <_eusrstack+0x1ffe10d4>
    1a48:	4398                	lw	a4,0(a5)
    1a4a:	00176713          	ori	a4,a4,1
    1a4e:	c398                	sw	a4,0(a5)
		*(&R32_PA_DIR + OFFSET_FOR_GPIOB(pin))    |= (pin & ~PB);
    1a50:	400017b7          	lui	a5,0x40001
    1a54:	0c078793          	addi	a5,a5,192 # 400010c0 <_eusrstack+0x1ffe10c0>
    1a58:	4398                	lw	a4,0(a5)
    1a5a:	00176713          	ori	a4,a4,1
    1a5e:	c398                	sw	a4,0(a5)
	GPIO_ResetBits(AUDIO_OUTPUT_PIN);
    1a60:	400017b7          	lui	a5,0x40001
    1a64:	0cc78793          	addi	a5,a5,204 # 400010cc <_eusrstack+0x1ffe10cc>
    1a68:	4705                	li	a4,1
    1a6a:	c398                	sw	a4,0(a5)
}
    1a6c:	8082                	ret

00001a6e <handle_reset>:
    1a6e:	20000197          	auipc	gp,0x20000
    1a72:	dbe18193          	addi	gp,gp,-578 # 2000182c <__global_pointer$>
    1a76:	2001e117          	auipc	sp,0x2001e
    1a7a:	58a10113          	addi	sp,sp,1418 # 20020000 <_eusrstack>
    1a7e:	c0c18513          	addi	a0,gp,-1012 # 20001438 <g_last_ntag_version>
    1a82:	20000597          	auipc	a1,0x20000
    1a86:	7de58593          	addi	a1,a1,2014 # 20002260 <_ebss>
    1a8a:	00b57763          	bgeu	a0,a1,1a98 <handle_reset+0x2a>
    1a8e:	00052023          	sw	zero,0(a0)
    1a92:	0511                	addi	a0,a0,4
    1a94:	feb56de3          	bltu	a0,a1,1a8e <handle_reset+0x20>
    1a98:	0a000513          	li	a0,160
    1a9c:	1fffe597          	auipc	a1,0x1fffe
    1aa0:	56458593          	addi	a1,a1,1380 # 20000000 <blink>
    1aa4:	20000617          	auipc	a2,0x20000
    1aa8:	98c60613          	addi	a2,a2,-1652 # 20001430 <g_nfca_pcd_rx_crc_enable>
    1aac:	00c5fa63          	bgeu	a1,a2,1ac0 <handle_reset+0x52>
    1ab0:	00052283          	lw	t0,0(a0)
    1ab4:	0055a023          	sw	t0,0(a1)
    1ab8:	0511                	addi	a0,a0,4
    1aba:	0591                	addi	a1,a1,4
    1abc:	fec5eae3          	bltu	a1,a2,1ab0 <handle_reset+0x42>
    1ac0:	00001517          	auipc	a0,0x1
    1ac4:	c5c50513          	addi	a0,a0,-932 # 271c <_data_lma>
    1ac8:	c0418593          	addi	a1,gp,-1020 # 20001430 <g_nfca_pcd_rx_crc_enable>
    1acc:	c0c18613          	addi	a2,gp,-1012 # 20001438 <g_last_ntag_version>
    1ad0:	00c58a63          	beq	a1,a2,1ae4 <handle_reset+0x76>
    1ad4:	00052283          	lw	t0,0(a0)
    1ad8:	0055a023          	sw	t0,0(a1)
    1adc:	0511                	addi	a0,a0,4
    1ade:	0591                	addi	a1,a1,4
    1ae0:	fec5eae3          	bltu	a1,a2,1ad4 <handle_reset+0x66>
    1ae4:	00000793          	li	a5,0
    1ae8:	42fd                	li	t0,31
    1aea:	bc029073          	csrw	0xbc0,t0
    1aee:	6289                	lui	t0,0x2
    1af0:	88828293          	addi	t0,t0,-1912 # 1888 <nfca_pcd_wait_comm_end+0xda>
    1af4:	3002a073          	csrs	mstatus,t0
    1af8:	ffffe297          	auipc	t0,0xffffe
    1afc:	50828293          	addi	t0,t0,1288 # 0 <InterruptVector>
    1b00:	0032e293          	ori	t0,t0,3
    1b04:	30529073          	csrw	mtvec,t0
    1b08:	e000f7b7          	lui	a5,0xe000f
    1b0c:	4715                	li	a4,5
    1b0e:	c398                	sw	a4,0(a5)
    1b10:	6789                	lui	a5,0x2
    1b12:	1f078793          	addi	a5,a5,496 # 21f0 <main>
    1b16:	34179073          	csrw	mepc,a5
    1b1a:	30200073          	mret

00001b1e <ADC1_2_IRQHandler>:
    1b1e:	a001                	j	1b1e <ADC1_2_IRQHandler>

00001b20 <USB_IRQHandler>:
{
    1b20:	715d                	addi	sp,sp,-80
    1b22:	d03e                	sw	a5,32(sp)
	uint16_t intfgst = *(uint16_t*)(&USBFS->INT_FG);
    1b24:	400087b7          	lui	a5,0x40008
    1b28:	0799                	addi	a5,a5,6 # 40008006 <_eusrstack+0x1ffe8006>
    1b2a:	0007d783          	lhu	a5,0(a5)
{
    1b2e:	de22                	sw	s0,60(sp)
    1b30:	d23a                	sw	a4,36(sp)
    1b32:	c686                	sw	ra,76(sp)
    1b34:	c496                	sw	t0,72(sp)
    1b36:	c29a                	sw	t1,68(sp)
    1b38:	c09e                	sw	t2,64(sp)
    1b3a:	dc26                	sw	s1,56(sp)
    1b3c:	da2a                	sw	a0,52(sp)
    1b3e:	d82e                	sw	a1,48(sp)
    1b40:	d632                	sw	a2,44(sp)
    1b42:	d436                	sw	a3,40(sp)
    1b44:	ce42                	sw	a6,28(sp)
    1b46:	cc46                	sw	a7,24(sp)
    1b48:	ca4a                	sw	s2,20(sp)
    1b4a:	c84e                	sw	s3,16(sp)
    1b4c:	c672                	sw	t3,12(sp)
    1b4e:	c476                	sw	t4,8(sp)
    1b50:	c27a                	sw	t5,4(sp)
    1b52:	c07e                	sw	t6,0(sp)
	if( intfgst & CRB_UIF_TRANSFER )
    1b54:	0027f713          	andi	a4,a5,2
	uint16_t intfgst = *(uint16_t*)(&USBFS->INT_FG);
    1b58:	40008437          	lui	s0,0x40008
	if( intfgst & CRB_UIF_TRANSFER )
    1b5c:	42070263          	beqz	a4,1f80 <USB_IRQHandler+0x460>
		int token = ( intfgst & CMASK_UIS_TOKEN) >> 12;
    1b60:	40c7d713          	srai	a4,a5,0xc
		int ep = ( intfgst & CMASK_UIS_ENDP ) >> 8;
    1b64:	4087d593          	srai	a1,a5,0x8
		int token = ( intfgst & CMASK_UIS_TOKEN) >> 12;
    1b68:	8b0d                	andi	a4,a4,3
		switch ( token )
    1b6a:	4689                	li	a3,2
		int ep = ( intfgst & CMASK_UIS_ENDP ) >> 8;
    1b6c:	89bd                	andi	a1,a1,15
		switch ( token )
    1b6e:	04d70363          	beq	a4,a3,1bb4 <USB_IRQHandler+0x94>
    1b72:	468d                	li	a3,3
    1b74:	1cd70863          	beq	a4,a3,1d44 <USB_IRQHandler+0x224>
    1b78:	12070d63          	beqz	a4,1cb2 <USB_IRQHandler+0x192>
		USBFS->INT_FG = CRB_UIF_TRANSFER;
    1b7c:	400087b7          	lui	a5,0x40008
    1b80:	4709                	li	a4,2
    1b82:	00e78323          	sb	a4,6(a5) # 40008006 <_eusrstack+0x1ffe8006>
}
    1b86:	5472                	lw	s0,60(sp)
    1b88:	40b6                	lw	ra,76(sp)
    1b8a:	42a6                	lw	t0,72(sp)
    1b8c:	4316                	lw	t1,68(sp)
    1b8e:	4386                	lw	t2,64(sp)
    1b90:	54e2                	lw	s1,56(sp)
    1b92:	5552                	lw	a0,52(sp)
    1b94:	55c2                	lw	a1,48(sp)
    1b96:	5632                	lw	a2,44(sp)
    1b98:	56a2                	lw	a3,40(sp)
    1b9a:	5712                	lw	a4,36(sp)
    1b9c:	5782                	lw	a5,32(sp)
    1b9e:	4872                	lw	a6,28(sp)
    1ba0:	48e2                	lw	a7,24(sp)
    1ba2:	4952                	lw	s2,20(sp)
    1ba4:	49c2                	lw	s3,16(sp)
    1ba6:	4e32                	lw	t3,12(sp)
    1ba8:	4ea2                	lw	t4,8(sp)
    1baa:	4f12                	lw	t5,4(sp)
    1bac:	4f82                	lw	t6,0(sp)
    1bae:	6161                	addi	sp,sp,80
    1bb0:	30200073          	mret
			if( ep )
    1bb4:	c99d                	beqz	a1,1bea <USB_IRQHandler+0xca>
				if( ep < FUSB_CONFIG_EPS )
    1bb6:	fcb743e3          	blt	a4,a1,1b7c <USB_IRQHandler+0x5c>
					UEP_CTRL_TX(ep) ^= USBFS_UEP_T_TOG;
    1bba:	400087b7          	lui	a5,0x40008
    1bbe:	02278793          	addi	a5,a5,34 # 40008022 <_eusrstack+0x1ffe8022>
    1bc2:	00259713          	slli	a4,a1,0x2
    1bc6:	973e                	add	a4,a4,a5
    1bc8:	00074783          	lbu	a5,0(a4)
    1bcc:	0407c793          	xori	a5,a5,64
						UEP_CTRL_TX(ep) = ( UEP_CTRL_TX(ep) & ~USBFS_UEP_T_RES_MASK ) | USBFS_UEP_T_RES_NAK;
    1bd0:	9bf1                	andi	a5,a5,-4
    1bd2:	0027e793          	ori	a5,a5,2
    1bd6:	00f70023          	sb	a5,0(a4)
					ctx->USBFS_Endp_Busy[ ep ] = 0;
    1bda:	200027b7          	lui	a5,0x20002
    1bde:	17c78793          	addi	a5,a5,380 # 2000217c <USBFSCTX>
    1be2:	97ae                	add	a5,a5,a1
    1be4:	0e078023          	sb	zero,224(a5)
    1be8:	bf51                	j	1b7c <USB_IRQHandler+0x5c>
				if( ctx->USBFS_SetupReqLen == 0 )
    1bea:	20002437          	lui	s0,0x20002
    1bee:	17c40793          	addi	a5,s0,380 # 2000217c <USBFSCTX>
    1bf2:	0027d783          	lhu	a5,2(a5)
    1bf6:	17c40413          	addi	s0,s0,380
    1bfa:	e799                	bnez	a5,1c08 <USB_IRQHandler+0xe8>
					UEP_CTRL_TX(0) = USBFS_UEP_R_RES_ACK | USBFS_UEP_R_TOG;
    1bfc:	400087b7          	lui	a5,0x40008
    1c00:	f8000713          	li	a4,-128
    1c04:	02e78123          	sb	a4,34(a5) # 40008022 <_eusrstack+0x1ffe8022>
				if( ctx->pCtrlPayloadPtr )
    1c08:	00c42983          	lw	s3,12(s0)
				ctx->USBFS_errata_dont_send_endpoint_in_window = 0;
    1c0c:	0e0401a3          	sb	zero,227(s0)
				if( ctx->pCtrlPayloadPtr )
    1c10:	04098d63          	beqz	s3,1c6a <USB_IRQHandler+0x14a>
					len = ctx->USBFS_SetupReqLen >= DEF_USBD_UEP0_SIZE ? DEF_USBD_UEP0_SIZE : ctx->USBFS_SetupReqLen;
    1c14:	00245483          	lhu	s1,2(s0)
    1c18:	04000793          	li	a5,64
    1c1c:	8926                	mv	s2,s1
    1c1e:	0097f463          	bgeu	a5,s1,1c26 <USB_IRQHandler+0x106>
    1c22:	04000913          	li	s2,64
    1c26:	0942                	slli	s2,s2,0x10
    1c28:	01095913          	srli	s2,s2,0x10
					ctx->USBFS_SetupReqLen -= len;
    1c2c:	412484b3          	sub	s1,s1,s2
					copyBuffer( ctrl0buff, ctx->pCtrlPayloadPtr, len ); // FYI -> Would need to do this if using DMA
    1c30:	20002537          	lui	a0,0x20002
					ctx->USBFS_SetupReqLen -= len;
    1c34:	04c2                	slli	s1,s1,0x10
					copyBuffer( ctrl0buff, ctx->pCtrlPayloadPtr, len ); // FYI -> Would need to do this if using DMA
    1c36:	864a                	mv	a2,s2
    1c38:	85ce                	mv	a1,s3
    1c3a:	18c50513          	addi	a0,a0,396 # 2000218c <USBFSCTX+0x10>
					ctx->USBFS_SetupReqLen -= len;
    1c3e:	80c1                	srli	s1,s1,0x10
					copyBuffer( ctrl0buff, ctx->pCtrlPayloadPtr, len ); // FYI -> Would need to do this if using DMA
    1c40:	266d                	jal	1fea <memcpy>
					ctx->USBFS_SetupReqLen -= len;
    1c42:	00941123          	sh	s1,2(s0)
						ctx->pCtrlPayloadPtr = 0;
    1c46:	4781                	li	a5,0
					if( ctx->USBFS_SetupReqLen > 0 )
    1c48:	c099                	beqz	s1,1c4e <USB_IRQHandler+0x12e>
						ctx->pCtrlPayloadPtr += len;
    1c4a:	012987b3          	add	a5,s3,s2
    1c4e:	c45c                	sw	a5,12(s0)
					UEP_CTRL_LEN(0) = len;
    1c50:	400087b7          	lui	a5,0x40008
    1c54:	03278023          	sb	s2,32(a5) # 40008020 <_eusrstack+0x1ffe8020>
						UEP_CTRL_TX(0) ^= USBFS_UEP_T_TOG;
    1c58:	400087b7          	lui	a5,0x40008
    1c5c:	0227c703          	lbu	a4,34(a5) # 40008022 <_eusrstack+0x1ffe8022>
    1c60:	04074713          	xori	a4,a4,64
			UEP_CTRL_TX(0) = USBFS_UEP_T_TOG | USBFS_UEP_T_RES_STALL | USBFS_UEP_R_TOG | USBFS_UEP_R_RES_STALL;
    1c64:	02e78123          	sb	a4,34(a5)
    1c68:	bf11                	j	1b7c <USB_IRQHandler+0x5c>
				else if ( ( ctx->USBFS_SetupReqType & USB_REQ_TYP_MASK ) != USB_REQ_TYP_STANDARD )
    1c6a:	00144783          	lbu	a5,1(s0)
    1c6e:	0607f793          	andi	a5,a5,96
    1c72:	cf99                	beqz	a5,1c90 <USB_IRQHandler+0x170>
					if( len && USBFSCTX.USBFS_SetupReqCode != HID_GET_REPORT )
    1c74:	00245783          	lhu	a5,2(s0)
    1c78:	f00782e3          	beqz	a5,1b7c <USB_IRQHandler+0x5c>
    1c7c:	00044703          	lbu	a4,0(s0)
    1c80:	4785                	li	a5,1
    1c82:	eef70de3          	beq	a4,a5,1b7c <USB_IRQHandler+0x5c>
						UEP_CTRL_LEN(0) = len;
    1c86:	400087b7          	lui	a5,0x40008
    1c8a:	02078023          	sb	zero,32(a5) # 40008020 <_eusrstack+0x1ffe8020>
    1c8e:	b7e9                	j	1c58 <USB_IRQHandler+0x138>
					switch( USBFSCTX.USBFS_SetupReqCode )
    1c90:	00044703          	lbu	a4,0(s0)
    1c94:	4795                	li	a5,5
    1c96:	eef713e3          	bne	a4,a5,1b7c <USB_IRQHandler+0x5c>
							USBFS->DEV_ADDR = ( USBFS->DEV_ADDR & USBFS_UDA_GP_BIT ) | ctx->USBFS_DevAddr;
    1c9a:	400086b7          	lui	a3,0x40008
    1c9e:	0036c703          	lbu	a4,3(a3) # 40008003 <_eusrstack+0x1ffe8003>
    1ca2:	00944783          	lbu	a5,9(s0)
    1ca6:	08077713          	andi	a4,a4,128
    1caa:	8fd9                	or	a5,a5,a4
    1cac:	00f681a3          	sb	a5,3(a3)
							break;
    1cb0:	b5f1                	j	1b7c <USB_IRQHandler+0x5c>
			len = USBFS->RX_LEN;
    1cb2:	00844683          	lbu	a3,8(s0)
    1cb6:	0ff6f693          	zext.b	a3,a3
			switch( ep )
    1cba:	e1b9                	bnez	a1,1d00 <USB_IRQHandler+0x1e0>
					if( intfgst & CRB_UIS_TOG_OK )
    1cbc:	01179713          	slli	a4,a5,0x11
    1cc0:	ea075ee3          	bgez	a4,1b7c <USB_IRQHandler+0x5c>
						if( ctx->USBFS_SetupReqLen == 0 )
    1cc4:	200027b7          	lui	a5,0x20002
    1cc8:	17c78793          	addi	a5,a5,380 # 2000217c <USBFSCTX>
    1ccc:	0027d703          	lhu	a4,2(a5)
    1cd0:	e30d                	bnez	a4,1cf2 <USB_IRQHandler+0x1d2>
							if ( ( ctx->USBFS_SetupReqType & USB_REQ_TYP_IN ) == 0 )
    1cd2:	00178703          	lb	a4,1(a5)
    1cd6:	00074563          	bltz	a4,1ce0 <USB_IRQHandler+0x1c0>
								ctx->USBFS_errata_dont_send_endpoint_in_window = 1;
    1cda:	4705                	li	a4,1
    1cdc:	0ee781a3          	sb	a4,227(a5)
							UEP_CTRL_LEN(0) = 0;
    1ce0:	400087b7          	lui	a5,0x40008
    1ce4:	02078023          	sb	zero,32(a5) # 40008020 <_eusrstack+0x1ffe8020>
							UEP_CTRL_TX(0) = USBFS_UEP_T_TOG | CHECK_USBFS_UEP_T_AUTO_TOG | USBFS_UEP_T_RES_ACK;
    1ce8:	05000713          	li	a4,80
    1cec:	400087b7          	lui	a5,0x40008
    1cf0:	bf95                	j	1c64 <USB_IRQHandler+0x144>
							UEP_CTRL_TX(0) ^= USBFS_UEP_R_TOG;
    1cf2:	400087b7          	lui	a5,0x40008
    1cf6:	0227c703          	lbu	a4,34(a5) # 40008022 <_eusrstack+0x1ffe8022>
    1cfa:	f8074713          	xori	a4,a4,-128
    1cfe:	b79d                	j	1c64 <USB_IRQHandler+0x144>
					UEP_CTRL_TX(ep) ^= USBFS_UEP_R_TOG;
    1d00:	4611                	li	a2,4
    1d02:	00259793          	slli	a5,a1,0x2
    1d06:	00b65463          	bge	a2,a1,1d0e <USB_IRQHandler+0x1ee>
    1d0a:	03000713          	li	a4,48
    1d0e:	97ba                	add	a5,a5,a4
    1d10:	40008737          	lui	a4,0x40008
    1d14:	02270713          	addi	a4,a4,34 # 40008022 <_eusrstack+0x1ffe8022>
    1d18:	97ba                	add	a5,a5,a4
    1d1a:	0007c703          	lbu	a4,0(a5)
					HandleDataOut( ctx, ep, ctx->ENDPOINTS[ep], len );
    1d1e:	20002537          	lui	a0,0x20002
    1d22:	17c50613          	addi	a2,a0,380 # 2000217c <USBFSCTX>
					UEP_CTRL_TX(ep) ^= USBFS_UEP_R_TOG;
    1d26:	f8074713          	xori	a4,a4,-128
    1d2a:	00e78023          	sb	a4,0(a5)
					HandleDataOut( ctx, ep, ctx->ENDPOINTS[ep], len );
    1d2e:	00659793          	slli	a5,a1,0x6
    1d32:	07c1                	addi	a5,a5,16
    1d34:	963e                	add	a2,a2,a5
    1d36:	17c50513          	addi	a0,a0,380
    1d3a:	1fffe097          	auipc	ra,0x1fffe
    1d3e:	342080e7          	jalr	834(ra) # 2000007c <HandleDataOut>
					break;
    1d42:	bd2d                	j	1b7c <USB_IRQHandler+0x5c>
			if (!(USBFS->INT_ST & 0x80)) goto replycomplete;
    1d44:	00744783          	lbu	a5,7(s0)
    1d48:	07e2                	slli	a5,a5,0x18
    1d4a:	87e1                	srai	a5,a5,0x18
    1d4c:	e207d8e3          	bgez	a5,1b7c <USB_IRQHandler+0x5c>
			UEP_CTRL_TX(0) = USBFS_UEP_T_RES_NAK | USBFS_UEP_T_TOG | USBFS_UEP_R_RES_NAK | USBFS_UEP_R_TOG | CHECK_USBFS_UEP_AUTO_TOG;
    1d50:	400087b7          	lui	a5,0x40008
    1d54:	fda00713          	li	a4,-38
			int USBFS_SetupReqType = USBFSCTX.USBFS_SetupReqType  = pUSBFS_SetupReqPak->bmRequestType;
    1d58:	20002eb7          	lui	t4,0x20002
			UEP_CTRL_TX(0) = USBFS_UEP_T_RES_NAK | USBFS_UEP_T_TOG | USBFS_UEP_R_RES_NAK | USBFS_UEP_R_TOG | CHECK_USBFS_UEP_AUTO_TOG;
    1d5c:	02e78123          	sb	a4,34(a5) # 40008022 <_eusrstack+0x1ffe8022>
			int USBFS_SetupReqType = USBFSCTX.USBFS_SetupReqType  = pUSBFS_SetupReqPak->bmRequestType;
    1d60:	17ce8793          	addi	a5,t4,380 # 2000217c <USBFSCTX>
			int USBFS_SetupReqCode = USBFSCTX.USBFS_SetupReqCode  = pUSBFS_SetupReqPak->bRequest;
    1d64:	0107d703          	lhu	a4,16(a5)
    1d68:	0127d883          	lhu	a7,18(a5)
			int USBFS_SetupReqLen = USBFSCTX.USBFS_SetupReqLen    = pUSBFS_SetupReqPak->wLength;
    1d6c:	0167d803          	lhu	a6,22(a5)
			int USBFS_SetupReqCode = USBFSCTX.USBFS_SetupReqCode  = pUSBFS_SetupReqPak->bRequest;
    1d70:	00871693          	slli	a3,a4,0x8
    1d74:	8321                	srli	a4,a4,0x8
    1d76:	8f55                	or	a4,a4,a3
    1d78:	0147d683          	lhu	a3,20(a5)
			int USBFS_SetupReqType = USBFSCTX.USBFS_SetupReqType  = pUSBFS_SetupReqPak->bmRequestType;
    1d7c:	0107c503          	lbu	a0,16(a5)
			int USBFS_SetupReqCode = USBFSCTX.USBFS_SetupReqCode  = pUSBFS_SetupReqPak->bRequest;
    1d80:	16ee9e23          	sh	a4,380(t4)
    1d84:	01069713          	slli	a4,a3,0x10
    1d88:	01176733          	or	a4,a4,a7
			int USBFS_SetupReqLen = USBFSCTX.USBFS_SetupReqLen    = pUSBFS_SetupReqPak->wLength;
    1d8c:	01079123          	sh	a6,2(a5)
			int USBFS_IndexValue = USBFSCTX.USBFS_IndexValue = ( pUSBFS_SetupReqPak->wIndex << 16 ) | pUSBFS_SetupReqPak->wValue;
    1d90:	c3d8                	sw	a4,4(a5)
    1d92:	06057893          	andi	a7,a0,96
			int USBFS_SetupReqCode = USBFSCTX.USBFS_SetupReqCode  = pUSBFS_SetupReqPak->bRequest;
    1d96:	0117c303          	lbu	t1,17(a5)
			int USBFS_SetupReqLen = USBFSCTX.USBFS_SetupReqLen    = pUSBFS_SetupReqPak->wLength;
    1d9a:	8642                	mv	a2,a6
			if( ( USBFS_SetupReqType & USB_REQ_TYP_MASK ) != USB_REQ_TYP_STANDARD )
    1d9c:	00088c63          	beqz	a7,1db4 <USB_IRQHandler+0x294>
				if( ( USBFS_SetupReqType & USB_REQ_TYP_MASK ) == USB_REQ_TYP_CLASS || ( USBFS_SetupReqType & USB_REQ_TYP_MASK ) == USB_REQ_TYP_VENDOR )
    1da0:	1881                	addi	a7,a7,-32
    1da2:	0c08f893          	andi	a7,a7,192
    1da6:	04089863          	bnez	a7,1df6 <USB_IRQHandler+0x2d6>
			UEP_CTRL_TX(0) = USBFS_UEP_T_TOG | USBFS_UEP_T_RES_STALL | USBFS_UEP_R_TOG | USBFS_UEP_R_RES_STALL;
    1daa:	400087b7          	lui	a5,0x40008
    1dae:	fcf00713          	li	a4,-49
    1db2:	bd4d                	j	1c64 <USB_IRQHandler+0x144>
				switch( USBFS_SetupReqCode )
    1db4:	48ad                	li	a7,11
    1db6:	fe68eae3          	bltu	a7,t1,1daa <USB_IRQHandler+0x28a>
    1dba:	6e09                	lui	t3,0x2
    1dbc:	00231893          	slli	a7,t1,0x2
    1dc0:	544e0e13          	addi	t3,t3,1348 # 2544 <string0+0x4>
    1dc4:	98f2                	add	a7,a7,t3
    1dc6:	0008a883          	lw	a7,0(a7)
    1dca:	8882                	jr	a7
						const struct descriptor_list_struct * e = descriptor_list;
    1dcc:	6689                	lui	a3,0x2
						for( ; e != e_end; e++ )
    1dce:	6589                	lui	a1,0x2
						const struct descriptor_list_struct * e = descriptor_list;
    1dd0:	6d468693          	addi	a3,a3,1748 # 26d4 <descriptor_list>
						for( ; e != e_end; e++ )
    1dd4:	71c58593          	addi	a1,a1,1820 # 271c <_data_lma>
							if( e->lIndexValue == (uint32_t)USBFS_IndexValue )
    1dd8:	0006a883          	lw	a7,0(a3)
    1ddc:	04e89963          	bne	a7,a4,1e2e <USB_IRQHandler+0x30e>
								ctx->pCtrlPayloadPtr = (uint8_t*)e->addr;
    1de0:	42d8                	lw	a4,4(a3)
						ctx->USBFS_SetupReqLen = len;
    1de2:	17ce8e93          	addi	t4,t4,380
								ctx->pCtrlPayloadPtr = (uint8_t*)e->addr;
    1de6:	c7d8                	sw	a4,12(a5)
								len = e->length;
    1de8:	0086c703          	lbu	a4,8(a3)
						if( len > USBFS_SetupReqLen )
    1dec:	00e85363          	bge	a6,a4,1df2 <USB_IRQHandler+0x2d2>
    1df0:	8742                	mv	a4,a6
						ctx->USBFS_SetupReqLen = len;
    1df2:	00ee9123          	sh	a4,2(t4)
				if( USBFS_SetupReqType & DEF_UEP_IN )
    1df6:	01851713          	slli	a4,a0,0x18
    1dfa:	8761                	srai	a4,a4,0x18
    1dfc:	16075263          	bgez	a4,1f60 <USB_IRQHandler+0x440>
					len = ( USBFS_SetupReqLen > DEF_USBD_UEP0_SIZE )? DEF_USBD_UEP0_SIZE : USBFS_SetupReqLen;
    1e00:	04000713          	li	a4,64
    1e04:	00c75463          	bge	a4,a2,1e0c <USB_IRQHandler+0x2ec>
    1e08:	04000613          	li	a2,64
					UEP_CTRL_LEN(0) = len;
    1e0c:	40008737          	lui	a4,0x40008
    1e10:	02c70023          	sb	a2,32(a4) # 40008020 <_eusrstack+0x1ffe8020>
					if (USBFS_SetupReqCode != USB_GET_DESCRIPTOR)
    1e14:	4719                	li	a4,6
    1e16:	14e30063          	beq	t1,a4,1f56 <USB_IRQHandler+0x436>
						ctx->USBFS_SetupReqLen -= len;
    1e1a:	0027d703          	lhu	a4,2(a5) # 40008002 <_eusrstack+0x1ffe8002>
    1e1e:	8f11                	sub	a4,a4,a2
    1e20:	00e79123          	sh	a4,2(a5)
						UEP_CTRL_TX(0) = USBFS_UEP_T_RES_ACK | USBFS_UEP_T_TOG;
    1e24:	400087b7          	lui	a5,0x40008
    1e28:	04000713          	li	a4,64
    1e2c:	bd25                	j	1c64 <USB_IRQHandler+0x144>
						for( ; e != e_end; e++ )
    1e2e:	06b1                	addi	a3,a3,12
    1e30:	fab694e3          	bne	a3,a1,1dd8 <USB_IRQHandler+0x2b8>
    1e34:	bf9d                	j	1daa <USB_IRQHandler+0x28a>
						ctx->USBFS_DevAddr = (uint8_t)( ctx->USBFS_IndexValue & 0xFF );
    1e36:	00e784a3          	sb	a4,9(a5) # 40008009 <_eusrstack+0x1ffe8009>
						break;
    1e3a:	bf75                	j	1df6 <USB_IRQHandler+0x2d6>
						ctrl0buff[0] = ctx->USBFS_DevConfig;
    1e3c:	0087c703          	lbu	a4,8(a5)
    1e40:	00e78823          	sb	a4,16(a5)
						if( ctx->USBFS_SetupReqLen > 1 )
    1e44:	4705                	li	a4,1
    1e46:	fb0778e3          	bgeu	a4,a6,1df6 <USB_IRQHandler+0x2d6>
							ctx->USBFS_SetupReqLen = 1;
    1e4a:	00e79123          	sh	a4,2(a5)
    1e4e:	b765                	j	1df6 <USB_IRQHandler+0x2d6>
						ctx->USBFS_DevConfig = (uint8_t)( ctx->USBFS_IndexValue & 0xFF );
    1e50:	00e78423          	sb	a4,8(a5)
						ctx->USBFS_DevEnumStatus = 0x01;
    1e54:	4705                	li	a4,1
    1e56:	00e785a3          	sb	a4,11(a5)
							UEP_CTRL_TX(ep) &= ~USBFS_UEP_T_TOG;
    1e5a:	40008737          	lui	a4,0x40008
    1e5e:	02674683          	lbu	a3,38(a4) # 40008026 <_eusrstack+0x1ffe8026>
    1e62:	03f6f693          	andi	a3,a3,63
    1e66:	02d70323          	sb	a3,38(a4)
    1e6a:	40008737          	lui	a4,0x40008
    1e6e:	02a74683          	lbu	a3,42(a4) # 4000802a <_eusrstack+0x1ffe802a>
    1e72:	03f6f693          	andi	a3,a3,63
    1e76:	02d70523          	sb	a3,42(a4)
						for(int ep = 1; ep < FUSB_CONFIG_EPS; ep++) {
    1e7a:	bfb5                	j	1df6 <USB_IRQHandler+0x2d6>
						if( ( USBFS_SetupReqType & USB_REQ_RECIP_MASK ) == USB_REQ_RECIP_ENDP )
    1e7c:	01f57813          	andi	a6,a0,31
    1e80:	4889                	li	a7,2
    1e82:	f31814e3          	bne	a6,a7,1daa <USB_IRQHandler+0x28a>
							if( (uint8_t)( USBFS_IndexValue & 0xFF ) == USB_REQ_FEAT_ENDP_HALT )
    1e86:	0ff77713          	zext.b	a4,a4
    1e8a:	f305                	bnez	a4,1daa <USB_IRQHandler+0x28a>
								if( ep < FUSB_CONFIG_EPS ) 
    1e8c:	f0b84fe3          	blt	a6,a1,1daa <USB_IRQHandler+0x28a>
									if( USBFS_SetupReqIndex & DEF_UEP_IN  && ctx->endpoint_mode[ep] == -1 ) UEP_CTRL_TX(ep) = USBFS_UEP_T_RES_NAK;
    1e90:	0806f693          	andi	a3,a3,128
    1e94:	da99                	beqz	a3,1daa <USB_IRQHandler+0x28a>
    1e96:	03458713          	addi	a4,a1,52
    1e9a:	070a                	slli	a4,a4,0x2
    1e9c:	973e                	add	a4,a4,a5
    1e9e:	4314                	lw	a3,0(a4)
    1ea0:	577d                	li	a4,-1
    1ea2:	f0e694e3          	bne	a3,a4,1daa <USB_IRQHandler+0x28a>
    1ea6:	058a                	slli	a1,a1,0x2
    1ea8:	40008737          	lui	a4,0x40008
    1eac:	95ba                	add	a1,a1,a4
    1eae:	03058123          	sb	a6,34(a1)
						break;
    1eb2:	b791                	j	1df6 <USB_IRQHandler+0x2d6>
						else if( ( USBFS_SetupReqType & USB_REQ_RECIP_MASK ) == USB_REQ_RECIP_ENDP )
    1eb4:	01f57813          	andi	a6,a0,31
    1eb8:	4889                	li	a7,2
    1eba:	ef1818e3          	bne	a6,a7,1daa <USB_IRQHandler+0x28a>
							if( (uint8_t)( USBFS_IndexValue & 0xFF ) == USB_REQ_FEAT_ENDP_HALT )
    1ebe:	0ff77713          	zext.b	a4,a4
    1ec2:	ee0714e3          	bnez	a4,1daa <USB_IRQHandler+0x28a>
								if( ep < FUSB_CONFIG_EPS )
    1ec6:	f2b848e3          	blt	a6,a1,1df6 <USB_IRQHandler+0x2d6>
									if( (USBFS_SetupReqIndex & DEF_UEP_IN) && ctx->endpoint_mode[ep] == -1 )UEP_CTRL_TX(ep) = ( UEP_CTRL_TX(ep) & ~USBFS_UEP_T_RES_MASK ) | USBFS_UEP_T_RES_STALL;
    1eca:	0806f693          	andi	a3,a3,128
    1ece:	ec068ee3          	beqz	a3,1daa <USB_IRQHandler+0x28a>
    1ed2:	03458713          	addi	a4,a1,52
    1ed6:	070a                	slli	a4,a4,0x2
    1ed8:	973e                	add	a4,a4,a5
    1eda:	4314                	lw	a3,0(a4)
    1edc:	577d                	li	a4,-1
    1ede:	ece696e3          	bne	a3,a4,1daa <USB_IRQHandler+0x28a>
    1ee2:	40008737          	lui	a4,0x40008
    1ee6:	02270713          	addi	a4,a4,34 # 40008022 <_eusrstack+0x1ffe8022>
    1eea:	058a                	slli	a1,a1,0x2
    1eec:	95ba                	add	a1,a1,a4
    1eee:	0005c703          	lbu	a4,0(a1)
    1ef2:	00376713          	ori	a4,a4,3
    1ef6:	00e58023          	sb	a4,0(a1)
    1efa:	bdf5                	j	1df6 <USB_IRQHandler+0x2d6>
						ctrl0buff[0] = 0x00;
    1efc:	00078823          	sb	zero,16(a5)
						if( USBFS_SetupReqLen > 1 ) USBFS_SetupReqLen = 1;
    1f00:	ef005be3          	blez	a6,1df6 <USB_IRQHandler+0x2d6>
    1f04:	4605                	li	a2,1
    1f06:	bdc5                	j	1df6 <USB_IRQHandler+0x2d6>
						ctrl0buff[0] = 0x00;
    1f08:	00079823          	sh	zero,16(a5)
						if( ( USBFS_SetupReqType & USB_REQ_RECIP_MASK ) == USB_REQ_RECIP_DEVICE )
    1f0c:	01f57713          	andi	a4,a0,31
    1f10:	cf15                	beqz	a4,1f4c <USB_IRQHandler+0x42c>
						else if( ( USBFS_SetupReqType & USB_REQ_RECIP_MASK ) == USB_REQ_RECIP_ENDP )
    1f12:	4889                	li	a7,2
    1f14:	e9171be3          	bne	a4,a7,1daa <USB_IRQHandler+0x28a>
							if( ep < FUSB_CONFIG_EPS )
    1f18:	e8b749e3          	blt	a4,a1,1daa <USB_IRQHandler+0x28a>
								if( USBFS_SetupReqIndex & DEF_UEP_IN && ctx->endpoint_mode[ep] == -1 ) ctrl0buff[0] = ( UEP_CTRL_TX(ep) & USBFS_UEP_T_RES_MASK ) == USBFS_UEP_T_RES_STALL;
    1f1c:	0806f693          	andi	a3,a3,128
    1f20:	e80685e3          	beqz	a3,1daa <USB_IRQHandler+0x28a>
    1f24:	03458713          	addi	a4,a1,52
    1f28:	070a                	slli	a4,a4,0x2
    1f2a:	973e                	add	a4,a4,a5
    1f2c:	4314                	lw	a3,0(a4)
    1f2e:	577d                	li	a4,-1
    1f30:	e6e69de3          	bne	a3,a4,1daa <USB_IRQHandler+0x28a>
    1f34:	058a                	slli	a1,a1,0x2
    1f36:	40008737          	lui	a4,0x40008
    1f3a:	972e                	add	a4,a4,a1
    1f3c:	02274683          	lbu	a3,34(a4) # 40008022 <_eusrstack+0x1ffe8022>
    1f40:	8a8d                	andi	a3,a3,3
    1f42:	16f5                	addi	a3,a3,-3
    1f44:	0016b693          	seqz	a3,a3
    1f48:	00d78823          	sb	a3,16(a5)
						if( USBFS_SetupReqLen > 2 )
    1f4c:	4709                	li	a4,2
    1f4e:	eb0754e3          	bge	a4,a6,1df6 <USB_IRQHandler+0x2d6>
    1f52:	4609                	li	a2,2
    1f54:	b54d                	j	1df6 <USB_IRQHandler+0x2d6>
						UEP_CTRL_TX(0) = USBFS_UEP_T_RES_ACK;
    1f56:	400087b7          	lui	a5,0x40008
    1f5a:	02078123          	sb	zero,34(a5) # 40008022 <_eusrstack+0x1ffe8022>
    1f5e:	b939                	j	1b7c <USB_IRQHandler+0x5c>
					if( USBFS_SetupReqLen == 0 )
    1f60:	400087b7          	lui	a5,0x40008
    1f64:	02278793          	addi	a5,a5,34 # 40008022 <_eusrstack+0x1ffe8022>
						UEP_CTRL_TX(0) = CHECK_USBFS_UEP_T_AUTO_TOG | USBFS_UEP_R_RES_ACK | USBFS_UEP_R_TOG;
    1f68:	f9000713          	li	a4,-112
					if( USBFS_SetupReqLen == 0 )
    1f6c:	e619                	bnez	a2,1f7a <USB_IRQHandler+0x45a>
						UEP_CTRL_LEN(0) = 0;
    1f6e:	40008737          	lui	a4,0x40008
    1f72:	02070023          	sb	zero,32(a4) # 40008020 <_eusrstack+0x1ffe8020>
						UEP_CTRL_TX(0) = USBFS_UEP_T_RES_ACK | USBFS_UEP_T_TOG;
    1f76:	04000713          	li	a4,64
						UEP_CTRL_TX(0) = CHECK_USBFS_UEP_T_AUTO_TOG | USBFS_UEP_R_RES_ACK | USBFS_UEP_R_TOG;
    1f7a:	00e78023          	sb	a4,0(a5)
    1f7e:	befd                	j	1b7c <USB_IRQHandler+0x5c>
	else if( intfgst & CRB_UIF_BUS_RST )
    1f80:	0017f713          	andi	a4,a5,1
    1f84:	cf09                	beqz	a4,1f9e <USB_IRQHandler+0x47e>
		ctx->USBFS_DevConfig = 0;
    1f86:	200027b7          	lui	a5,0x20002
    1f8a:	1807a223          	sw	zero,388(a5) # 20002184 <USBFSCTX+0x8>
		USBFS->DEV_ADDR = 0;
    1f8e:	000401a3          	sb	zero,3(s0)
		USBFS_InternalFinishSetup();
    1f92:	d54ff0ef          	jal	14e6 <USBFS_InternalFinishSetup>
		USBFS->INT_FG = CRB_UIF_BUS_RST;
    1f96:	4785                	li	a5,1
			USBFS->INT_FG = intfgst & 0xff;
    1f98:	00f40323          	sb	a5,6(s0)
}
    1f9c:	b6ed                	j	1b86 <USB_IRQHandler+0x66>
	else if( intfgst & CRB_UIF_SUSPEND )
    1f9e:	0047f713          	andi	a4,a5,4
			USBFS->INT_FG = intfgst & 0xff;
    1fa2:	0ff7f793          	zext.b	a5,a5
	else if( intfgst & CRB_UIF_SUSPEND )
    1fa6:	db6d                	beqz	a4,1f98 <USB_IRQHandler+0x478>
		USBFS->INT_FG = USBFS_UMS_SUSPEND;
    1fa8:	4791                	li	a5,4
    1faa:	00f40323          	sb	a5,6(s0)
		Delay_Us(10);
    1fae:	26c00513          	li	a0,620
    1fb2:	d1eff0ef          	jal	14d0 <DelaySysTick>
		if( USBFS->MIS_ST & USBFS_UMS_SUSPEND )
    1fb6:	00544683          	lbu	a3,5(s0)
			ctx->USBFS_DevSleepStatus |= 0x02;
    1fba:	20002737          	lui	a4,0x20002
    1fbe:	17c70713          	addi	a4,a4,380 # 2000217c <USBFSCTX>
		if( USBFS->MIS_ST & USBFS_UMS_SUSPEND )
    1fc2:	8a91                	andi	a3,a3,4
			ctx->USBFS_DevSleepStatus |= 0x02;
    1fc4:	00a74783          	lbu	a5,10(a4)
		if( USBFS->MIS_ST & USBFS_UMS_SUSPEND )
    1fc8:	c691                	beqz	a3,1fd4 <USB_IRQHandler+0x4b4>
			ctx->USBFS_DevSleepStatus |= 0x02;
    1fca:	0027e793          	ori	a5,a5,2
			ctx->USBFS_DevSleepStatus &= ~0x02;
    1fce:	00f70523          	sb	a5,10(a4)
    1fd2:	be55                	j	1b86 <USB_IRQHandler+0x66>
    1fd4:	9bf5                	andi	a5,a5,-3
    1fd6:	bfe5                	j	1fce <USB_IRQHandler+0x4ae>

00001fd8 <memset>:
    1fd8:	962a                	add	a2,a2,a0
    1fda:	87aa                	mv	a5,a0
    1fdc:	00c79363          	bne	a5,a2,1fe2 <memset+0xa>
    1fe0:	8082                	ret
    1fe2:	00b78023          	sb	a1,0(a5)
    1fe6:	0785                	addi	a5,a5,1
    1fe8:	bfd5                	j	1fdc <memset+0x4>

00001fea <memcpy>:
    1fea:	4781                	li	a5,0
    1fec:	00f61363          	bne	a2,a5,1ff2 <memcpy+0x8>
    1ff0:	8082                	ret
    1ff2:	00f58733          	add	a4,a1,a5
    1ff6:	00074683          	lbu	a3,0(a4)
    1ffa:	00f50733          	add	a4,a0,a5
    1ffe:	0785                	addi	a5,a5,1
    2000:	00d70023          	sb	a3,0(a4)
    2004:	b7e5                	j	1fec <memcpy+0x2>

00002006 <USBFS_SendEndpointNEW.constprop.0.isra.0>:
	USBFSCTX.USBFS_Endp_Busy[ endp ] = 1;
	NVIC_EnableIRQ( USB_IRQn );
	return 0;
}

int USBFS_SendEndpointNEW( int endp, uint8_t* data, int len, int copy)
    2006:	1141                	addi	sp,sp,-16
    2008:	c422                	sw	s0,8(sp)
{
	if( USBFSCTX.USBFS_errata_dont_send_endpoint_in_window || USBFSCTX.USBFS_Endp_Busy[ endp ] ) return -1;
    200a:	20002437          	lui	s0,0x20002
int USBFS_SendEndpointNEW( int endp, uint8_t* data, int len, int copy)
    200e:	c606                	sw	ra,12(sp)
    2010:	c226                	sw	s1,4(sp)
	if( USBFSCTX.USBFS_errata_dont_send_endpoint_in_window || USBFSCTX.USBFS_Endp_Busy[ endp ] ) return -1;
    2012:	17c40793          	addi	a5,s0,380 # 2000217c <USBFSCTX>
    2016:	0e37c783          	lbu	a5,227(a5)
    201a:	efb1                	bnez	a5,2076 <USBFS_SendEndpointNEW.constprop.0.isra.0+0x70>
    201c:	17c40413          	addi	s0,s0,380
    2020:	0e144783          	lbu	a5,225(s0)
    2024:	eba9                	bnez	a5,2076 <USBFS_SendEndpointNEW.constprop.0.isra.0+0x70>
	// This prevents sending while ep0 is receiving
	if( USBFSCTX.USBFS_SetupReqLen > 0 ) return USBFSCTX.USBFS_SetupReqLen;
    2026:	00245783          	lhu	a5,2(s0)
    202a:	e7b1                	bnez	a5,2076 <USBFS_SendEndpointNEW.constprop.0.isra.0+0x70>
#if defined (CH5xx) || defined (CH32X03x)
	// Check RB_UIS_SETUP_ACT
	if( (USBFS->INT_ST & 0x80) ) return -3;
    202c:	400087b7          	lui	a5,0x40008
    2030:	0077c783          	lbu	a5,7(a5) # 40008007 <_eusrstack+0x1ffe8007>
    2034:	07e2                	slli	a5,a5,0x18
    2036:	87e1                	srai	a5,a5,0x18
    2038:	0207cf63          	bltz	a5,2076 <USBFS_SendEndpointNEW.constprop.0.isra.0+0x70>
    203c:	84ae                	mv	s1,a1
#endif
	if ( len )
    203e:	cd91                	beqz	a1,205a <USBFS_SendEndpointNEW.constprop.0.isra.0+0x54>
	{
		if( copy )
		{
#if defined(CH5xx) || defined(CH32X03x)
			if ( endp != 4 ) UEP_DMA( endp ) = (uintptr_t)USBFSCTX.ENDPOINTS[endp];
    2040:	20002737          	lui	a4,0x20002
    2044:	400087b7          	lui	a5,0x40008
    2048:	1cc70693          	addi	a3,a4,460 # 200021cc <USBFSCTX+0x50>
#else
			UEP_DMA( endp ) = (uintptr_t)USBFSCTX.ENDPOINTS[endp];
#endif
			copyBuffer( USBFSCTX.ENDPOINTS[endp], data, len );
    204c:	862e                	mv	a2,a1
			if ( endp != 4 ) UEP_DMA( endp ) = (uintptr_t)USBFSCTX.ENDPOINTS[endp];
    204e:	00d79a23          	sh	a3,20(a5) # 40008014 <_eusrstack+0x1ffe8014>
			copyBuffer( USBFSCTX.ENDPOINTS[endp], data, len );
    2052:	85aa                	mv	a1,a0
    2054:	1cc70513          	addi	a0,a4,460
    2058:	3f49                	jal	1fea <memcpy>
			UEP_DMA( endp ) = (uintptr_t)data;
#endif
		}
	}
	// NVIC_DisableIRQ( USB_IRQn );
	UEP_CTRL_LEN( endp ) = len;
    205a:	400087b7          	lui	a5,0x40008
    205e:	02978223          	sb	s1,36(a5) # 40008024 <_eusrstack+0x1ffe8024>
	UEP_CTRL_TX( endp ) = ( UEP_CTRL_TX( endp ) & ~USBFS_UEP_T_RES_MASK ) | USBFS_UEP_T_RES_ACK;
    2062:	400087b7          	lui	a5,0x40008
    2066:	0267c703          	lbu	a4,38(a5) # 40008026 <_eusrstack+0x1ffe8026>
    206a:	9b71                	andi	a4,a4,-4
    206c:	02e78323          	sb	a4,38(a5)
	USBFSCTX.USBFS_Endp_Busy[ endp ] = 1;
    2070:	4785                	li	a5,1
    2072:	0ef400a3          	sb	a5,225(s0)
	// NVIC_EnableIRQ( USB_IRQn );
	return 0;
}
    2076:	40b2                	lw	ra,12(sp)
    2078:	4422                	lw	s0,8(sp)
    207a:	4492                	lw	s1,4(sp)
    207c:	0141                	addi	sp,sp,16
    207e:	8082                	ret

00002080 <usb_tx_pump>:
static inline void usb_tx_pump(void) {
    2080:	1141                	addi	sp,sp,-16
    2082:	c226                	sw	s1,4(sp)
	if (!g_usb_tx_len) return;
    2084:	c221d783          	lhu	a5,-990(gp) # 2000144e <g_usb_tx_len>
static inline void usb_tx_pump(void) {
    2088:	c606                	sw	ra,12(sp)
    208a:	c422                	sw	s0,8(sp)
    208c:	c04a                	sw	s2,0(sp)
	if (!g_usb_tx_len) return;
    208e:	c7d1                	beqz	a5,211a <usb_tx_pump+0x9a>
	if (USBFSCTX.USBFS_Endp_Busy[USB_EP_TX] & 1) return;
    2090:	200027b7          	lui	a5,0x20002
    2094:	17c78793          	addi	a5,a5,380 # 2000217c <USBFSCTX>
    2098:	0e17c783          	lbu	a5,225(a5)
    209c:	8b85                	andi	a5,a5,1
    209e:	efb5                	bnez	a5,211a <usb_tx_pump+0x9a>
	if (g_usb_tx_off == 0 && g_usb_tx_len >= 2) {
    20a0:	c201d783          	lhu	a5,-992(gp) # 2000144c <g_usb_tx_off>
    20a4:	e795                	bnez	a5,20d0 <usb_tx_pump+0x50>
    20a6:	c221d703          	lhu	a4,-990(gp) # 2000144e <g_usb_tx_len>
    20aa:	4785                	li	a5,1
    20ac:	02e7f263          	bgeu	a5,a4,20d0 <usb_tx_pump+0x50>
		USBFS_SendEndpointNEW(USB_EP_TX, (uint8_t*)g_usb_tx_buf, 2, /*copy=*/1);
    20b0:	4589                	li	a1,2
    20b2:	35018513          	addi	a0,gp,848 # 20001b7c <g_usb_tx_buf>
    20b6:	3f81                	jal	2006 <USBFS_SendEndpointNEW.constprop.0.isra.0>
		g_usb_tx_off = 2;
    20b8:	4789                	li	a5,2
    20ba:	c2f19023          	sh	a5,-992(gp) # 2000144c <g_usb_tx_off>
		if (g_usb_tx_len == 2) {
    20be:	c221d703          	lhu	a4,-990(gp) # 2000144e <g_usb_tx_len>
    20c2:	04f71c63          	bne	a4,a5,211a <usb_tx_pump+0x9a>
		g_usb_tx_len = 0;
    20c6:	c2019123          	sh	zero,-990(gp) # 2000144e <g_usb_tx_len>
		g_usb_tx_off = 0;
    20ca:	c2019023          	sh	zero,-992(gp) # 2000144c <g_usb_tx_off>
    20ce:	a0b1                	j	211a <usb_tx_pump+0x9a>
	uint16_t remaining = g_usb_tx_len - g_usb_tx_off;
    20d0:	c221d783          	lhu	a5,-990(gp) # 2000144e <g_usb_tx_len>
    20d4:	c201d703          	lhu	a4,-992(gp) # 2000144c <g_usb_tx_off>
    20d8:	8f99                	sub	a5,a5,a4
	uint16_t chunk = remaining > USBFS_MAX_PACKET ? USBFS_MAX_PACKET : remaining;
    20da:	893e                	mv	s2,a5
    20dc:	07c2                	slli	a5,a5,0x10
    20de:	83c1                	srli	a5,a5,0x10
    20e0:	04000713          	li	a4,64
    20e4:	00f77463          	bgeu	a4,a5,20ec <usb_tx_pump+0x6c>
    20e8:	04000913          	li	s2,64
	USBFS_SendEndpointNEW(USB_EP_TX, (uint8_t*)&g_usb_tx_buf[g_usb_tx_off], chunk, /*copy=*/1);
    20ec:	c201d783          	lhu	a5,-992(gp) # 2000144c <g_usb_tx_off>
	uint16_t chunk = remaining > USBFS_MAX_PACKET ? USBFS_MAX_PACKET : remaining;
    20f0:	0942                	slli	s2,s2,0x10
    20f2:	01095913          	srli	s2,s2,0x10
	USBFS_SendEndpointNEW(USB_EP_TX, (uint8_t*)&g_usb_tx_buf[g_usb_tx_off], chunk, /*copy=*/1);
    20f6:	35018513          	addi	a0,gp,848 # 20001b7c <g_usb_tx_buf>
    20fa:	953e                	add	a0,a0,a5
    20fc:	85ca                	mv	a1,s2
    20fe:	3721                	jal	2006 <USBFS_SendEndpointNEW.constprop.0.isra.0>
	g_usb_tx_off += chunk;
    2100:	c201d783          	lhu	a5,-992(gp) # 2000144c <g_usb_tx_off>
    2104:	97ca                	add	a5,a5,s2
    2106:	07c2                	slli	a5,a5,0x10
    2108:	83c1                	srli	a5,a5,0x10
    210a:	c2f19023          	sh	a5,-992(gp) # 2000144c <g_usb_tx_off>
	if (g_usb_tx_off >= g_usb_tx_len) {
    210e:	c201d703          	lhu	a4,-992(gp) # 2000144c <g_usb_tx_off>
    2112:	c221d783          	lhu	a5,-990(gp) # 2000144e <g_usb_tx_len>
    2116:	faf778e3          	bgeu	a4,a5,20c6 <usb_tx_pump+0x46>
}
    211a:	40b2                	lw	ra,12(sp)
    211c:	4422                	lw	s0,8(sp)
    211e:	4492                	lw	s1,4(sp)
    2120:	4902                	lw	s2,0(sp)
    2122:	0141                	addi	sp,sp,16
    2124:	8082                	ret

00002126 <usb_tx_queue_message.isra.0>:
	if (payload_len > USB_APP_MAX_PAYLOAD) return -1;
    2126:	1fe00793          	li	a5,510
    212a:	02b7ee63          	bltu	a5,a1,2166 <usb_tx_queue_message.isra.0+0x40>
static inline int usb_tx_queue_message(const uint8_t *payload, uint16_t payload_len) {
    212e:	1141                	addi	sp,sp,-16
    2130:	c226                	sw	s1,4(sp)
	if (g_usb_tx_len) return -2; // busy
    2132:	c221d783          	lhu	a5,-990(gp) # 2000144e <g_usb_tx_len>
static inline int usb_tx_queue_message(const uint8_t *payload, uint16_t payload_len) {
    2136:	c606                	sw	ra,12(sp)
    2138:	c422                	sw	s0,8(sp)
	if (g_usb_tx_len) return -2; // busy
    213a:	e38d                	bnez	a5,215c <usb_tx_queue_message.isra.0+0x36>
	g_usb_tx_buf[0] = (uint8_t)(payload_len & 0xff);
    213c:	34b19823          	sh	a1,848(gp) # 20001b7c <g_usb_tx_buf>
    2140:	842e                	mv	s0,a1
	if (payload_len) memcpy(&g_usb_tx_buf[2], payload, payload_len);
    2142:	c591                	beqz	a1,214e <usb_tx_queue_message.isra.0+0x28>
    2144:	862e                	mv	a2,a1
    2146:	85aa                	mv	a1,a0
    2148:	35218513          	addi	a0,gp,850 # 20001b7e <g_usb_tx_buf+0x2>
    214c:	3d79                	jal	1fea <memcpy>
	g_usb_tx_len = payload_len + 2;
    214e:	0409                	addi	s0,s0,2
    2150:	0442                	slli	s0,s0,0x10
	g_usb_tx_off = 0;
    2152:	c2019023          	sh	zero,-992(gp) # 2000144c <g_usb_tx_off>
	g_usb_tx_len = payload_len + 2;
    2156:	8041                	srli	s0,s0,0x10
    2158:	c2819123          	sh	s0,-990(gp) # 2000144e <g_usb_tx_len>
}
    215c:	40b2                	lw	ra,12(sp)
    215e:	4422                	lw	s0,8(sp)
    2160:	4492                	lw	s1,4(sp)
    2162:	0141                	addi	sp,sp,16
    2164:	8082                	ret
    2166:	8082                	ret

00002168 <usb_send_ntag_done_packet>:
{
    2168:	1101                	addi	sp,sp,-32
	uint8_t packet[2] = { USB_PKT_NTAG_DONE, status_code };
    216a:	fa300793          	li	a5,-93
{
    216e:	ce06                	sw	ra,28(sp)
	uint8_t packet[2] = { USB_PKT_NTAG_DONE, status_code };
    2170:	00f10623          	sb	a5,12(sp)
    2174:	00a106a3          	sb	a0,13(sp)
	while (g_usb_tx_len) { }
    2178:	c221d783          	lhu	a5,-990(gp) # 2000144e <g_usb_tx_len>
    217c:	fff5                	bnez	a5,2178 <usb_send_ntag_done_packet+0x10>
	usb_tx_queue_message(packet, sizeof(packet));
    217e:	0068                	addi	a0,sp,12
    2180:	4589                	li	a1,2
    2182:	3755                	jal	2126 <usb_tx_queue_message.isra.0>
	usb_tx_pump();
    2184:	3df5                	jal	2080 <usb_tx_pump>
}
    2186:	40f2                	lw	ra,28(sp)
    2188:	6105                	addi	sp,sp,32
    218a:	8082                	ret

0000218c <SystemInit>:
    218c:	400017b7          	lui	a5,0x40001
    2190:	04078793          	addi	a5,a5,64 # 40001040 <_eusrstack+0x1ffe1040>
    2194:	05700593          	li	a1,87
    2198:	00b78023          	sb	a1,0(a5)
    219c:	fa800613          	li	a2,-88
    21a0:	00c78023          	sb	a2,0(a5)
    21a4:	0001                	nop
    21a6:	0001                	nop
    21a8:	40002737          	lui	a4,0x40002
    21ac:	80574683          	lbu	a3,-2043(a4) # 40001805 <_eusrstack+0x1ffe1805>
    21b0:	0ef6f693          	andi	a3,a3,239
    21b4:	80d702a3          	sb	a3,-2043(a4)
    21b8:	40002737          	lui	a4,0x40002
    21bc:	4685                	li	a3,1
    21be:	80d703a3          	sb	a3,-2041(a4) # 40001807 <_eusrstack+0x1ffe1807>
    21c2:	00078023          	sb	zero,0(a5)
    21c6:	0001                	nop
    21c8:	0001                	nop
    21ca:	00b78023          	sb	a1,0(a5)
    21ce:	00c78023          	sb	a2,0(a5)
    21d2:	0001                	nop
    21d4:	0001                	nop
    21d6:	40001737          	lui	a4,0x40001
    21da:	34500693          	li	a3,837
    21de:	00d71423          	sh	a3,8(a4) # 40001008 <_eusrstack+0x1ffe1008>
    21e2:	00078023          	sb	zero,0(a5)
    21e6:	0001                	nop
    21e8:	0001                	nop
    21ea:	8082                	ret

000021ec <GPIOB_IRQHandler>:
}
    21ec:	30200073          	mret

000021f0 <main>:
		}
	}
}

int main() {
    21f0:	1101                	addi	sp,sp,-32
    21f2:	ce06                	sw	ra,28(sp)
    21f4:	cc22                	sw	s0,24(sp)
    21f6:	ca26                	sw	s1,20(sp)
    21f8:	c84a                	sw	s2,16(sp)
    21fa:	c64e                	sw	s3,12(sp)
    21fc:	c452                	sw	s4,8(sp)
		*(&R32_PA_PD_DRV + OFFSET_FOR_GPIOB(pin)) |= (pin & ~PB);
    21fe:	400019b7          	lui	s3,0x40001
	SystemInit();
    2202:	3769                	jal	218c <SystemInit>
    2204:	0d49a783          	lw	a5,212(s3) # 400010d4 <_eusrstack+0x1ffe10d4>
		*(&R32_PA_DIR + OFFSET_FOR_GPIOB(pin))    |= (pin & ~PB);
    2208:	40001937          	lui	s2,0x40001
	GPIO_ResetBits( STATUS_SK6812_PIN );
    220c:	04000713          	li	a4,64
		*(&R32_PA_PD_DRV + OFFSET_FOR_GPIOB(pin)) |= (pin & ~PB);
    2210:	0407e793          	ori	a5,a5,64
    2214:	0cf9aa23          	sw	a5,212(s3)
		*(&R32_PA_DIR + OFFSET_FOR_GPIOB(pin))    |= (pin & ~PB);
    2218:	0c092783          	lw	a5,192(s2) # 400010c0 <_eusrstack+0x1ffe10c0>
  R16_PIN_CONFIG |= RB_PIN_USB_EN | RB_UDP_PU_EN;
    221c:	400014b7          	lui	s1,0x40001
	USBFS->BASE_CTRL = USBFS_UC_RESET_SIE | USBFS_UC_CLR_ALL;
    2220:	40008437          	lui	s0,0x40008
    2224:	0407e793          	ori	a5,a5,64
    2228:	0cf92023          	sw	a5,192(s2)
    222c:	400017b7          	lui	a5,0x40001
    2230:	0cc78793          	addi	a5,a5,204 # 400010cc <_eusrstack+0x1ffe10cc>
    2234:	c398                	sw	a4,0(a5)
	audio_init();
    2236:	80bff0ef          	jal	1a40 <audio_init>
	sk6812_set_grbw(0, 0, 0, 0);
    223a:	4601                	li	a2,0
    223c:	4581                	li	a1,0
    223e:	4501                	li	a0,0
    2240:	fa4ff0ef          	jal	19e4 <sk6812_set_grbw.constprop.0>
	audio_init();
    2244:	ffcff0ef          	jal	1a40 <audio_init>
		play_tone(burst ? 784u : 523u, 120u);
    2248:	07800593          	li	a1,120
    224c:	20b00513          	li	a0,523
    2250:	c1cff0ef          	jal	166c <play_tone>
		Delay_Ms(30);
    2254:	001c9537          	lui	a0,0x1c9
    2258:	08050513          	addi	a0,a0,128 # 1c9080 <ch585_grand_finale.c.edbc3f23+0x1c51e3>
    225c:	a74ff0ef          	jal	14d0 <DelaySysTick>
		play_tone(burst ? 784u : 523u, 120u);
    2260:	07800593          	li	a1,120
    2264:	31000513          	li	a0,784
    2268:	c04ff0ef          	jal	166c <play_tone>
		Delay_Ms(30);
    226c:	001c9537          	lui	a0,0x1c9
    2270:	08050513          	addi	a0,a0,128 # 1c9080 <ch585_grand_finale.c.edbc3f23+0x1c51e3>
    2274:	a5cff0ef          	jal	14d0 <DelaySysTick>

	funGpioInitAll(); // no-op on ch5xx
	GPIOSetup();
	audio_play_boot_debug_beep();
	usb_rx_reset_assembly();
    2278:	cf0ff0ef          	jal	1768 <usb_rx_reset_assembly>
  R16_PIN_CONFIG |= RB_PIN_USB_EN | RB_UDP_PU_EN;
    227c:	01a4d783          	lhu	a5,26(s1) # 4000101a <_eusrstack+0x1ffe101a>
	Delay_Us(10);
    2280:	26c00513          	li	a0,620
  R16_PIN_CONFIG |= RB_PIN_USB_EN | RB_UDP_PU_EN;
    2284:	0c07e793          	ori	a5,a5,192
    2288:	00f49d23          	sh	a5,26(s1)
	USBFS->BASE_CTRL = USBFS_UC_RESET_SIE | USBFS_UC_CLR_ALL;
    228c:	4799                	li	a5,6
    228e:	00f40023          	sb	a5,0(s0) # 40008000 <_eusrstack+0x1ffe8000>
	USBFS->BASE_CTRL = 0x00;
    2292:	00040023          	sb	zero,0(s0)
	Delay_Us(10);
    2296:	a3aff0ef          	jal	14d0 <DelaySysTick>
	USBFS->INT_EN    = USBFS_UIE_SUSPEND | USBFS_UIE_TRANSFER | USBFS_UIE_BUS_RST;
    229a:	479d                	li	a5,7
    229c:	00f40123          	sb	a5,2(s0)
	USBFS->DEV_ADDR  = 0x00;
    22a0:	000401a3          	sb	zero,3(s0)
	USBFS->BASE_CTRL = USBFS_UC_INT_BUSY | USBFS_UC_DMA_EN | USBFS_UC_DEV_PU_EN;
    22a4:	02900793          	li	a5,41
    22a8:	00f40023          	sb	a5,0(s0)
	USBFS->INT_FG    = 0xff;
    22ac:	57fd                	li	a5,-1
    22ae:	00f40323          	sb	a5,6(s0)
	USBFS_InternalFinishSetup();
    22b2:	a34ff0ef          	jal	14e6 <USBFS_InternalFinishSetup>
	USBFS->UDEV_CTRL = USBFS_UD_PD_DIS | USBFS_UD_PORT_EN;
    22b6:	f8100793          	li	a5,-127
	NVIC->IENR[((uint32_t)(IRQn) >> 5)] = (1 << ((uint32_t)(IRQn) & 0x1F));
    22ba:	00400737          	lui	a4,0x400
    22be:	00f400a3          	sb	a5,1(s0)
    22c2:	e000e7b7          	lui	a5,0xe000e
    22c6:	10e7a023          	sw	a4,256(a5) # e000e100 <_eusrstack+0xbffee100>
	sk6812_set_grbw(g, r, b, SK6812_W_BRIGHT);
    22ca:	4601                	li	a2,0
    22cc:	45e1                	li	a1,24
    22ce:	4501                	li	a0,0
    22d0:	f14ff0ef          	jal	19e4 <sk6812_set_grbw.constprop.0>
#if !SK6812_DISABLE
	sk6812_set_rgb(SK6812_BRIGHT, 0, 0);
#endif

	// Prove USB is alive even if later bring-up (ADC/NFC) hangs.
	usb_tx_queue_message((const uint8_t*)"nfca585 boot", (uint16_t)strlen("nfca585 boot"));
    22d4:	6509                	lui	a0,0x2
    22d6:	45b1                	li	a1,12
    22d8:	58050513          	addi	a0,a0,1408 # 2580 <string0+0x40>
    22dc:	35a9                	jal	2126 <usb_tx_queue_message.isra.0>
	usb_tx_pump();
    22de:	334d                	jal	2080 <usb_tx_pump>

	blink(5); // Indicates boot
    22e0:	4515                	li	a0,5
    22e2:	1fffe097          	auipc	ra,0x1fffe
    22e6:	d1e080e7          	jalr	-738(ra) # 20000000 <blink>
	sk6812_set_grbw(g, r, b, SK6812_W_BRIGHT);
    22ea:	4581                	li	a1,0
    22ec:	4561                	li	a0,24
    22ee:	4601                	li	a2,0
    22f0:	ef4ff0ef          	jal	19e4 <sk6812_set_grbw.constprop.0>
		*(&R32_PA_PD_DRV + OFFSET_FOR_GPIOB(pin)) &= ~(pin & ~PB);
    22f4:	400017b7          	lui	a5,0x40001
    22f8:	0b478793          	addi	a5,a5,180 # 400010b4 <_eusrstack+0x1ffe10b4>
    22fc:	4398                	lw	a4,0(a5)
	R8_ADC_CONVERT &= ~RB_ADC_PGA_GAIN2;
    22fe:	40001437          	lui	s0,0x40001
    2302:	05a40413          	addi	s0,s0,90 # 4000105a <_eusrstack+0x1ffe105a>
    2306:	f7f77713          	andi	a4,a4,-129
    230a:	c398                	sw	a4,0(a5)
		*(&R32_PA_DIR + OFFSET_FOR_GPIOB(pin))    |= (pin & ~PB);
    230c:	400017b7          	lui	a5,0x40001
    2310:	0a078793          	addi	a5,a5,160 # 400010a0 <_eusrstack+0x1ffe10a0>
    2314:	4398                	lw	a4,0(a5)
    2316:	08076713          	ori	a4,a4,128
    231a:	c398                	sw	a4,0(a5)
		funDigitalWrite(PA7, FUN_HIGH);
    231c:	400017b7          	lui	a5,0x40001
    2320:	0b878793          	addi	a5,a5,184 # 400010b8 <_eusrstack+0x1ffe10b8>
    2324:	08000713          	li	a4,128
    2328:	c398                	sw	a4,0(a5)
	R32_PIN_IN_DIS |= PA7; // disable PA7 digital input
    232a:	400017b7          	lui	a5,0x40001
    232e:	4fd8                	lw	a4,28(a5)
    2330:	08076713          	ori	a4,a4,128
    2334:	cfd8                	sw	a4,28(a5)
		*(&R32_PA_PD_DRV + OFFSET_FOR_GPIOB(pin)) &= ~(pin & ~PB);
    2336:	0d49a683          	lw	a3,212(s3)
    233a:	fffd0737          	lui	a4,0xfffd0
    233e:	cff70713          	addi	a4,a4,-769 # fffcfcff <_eusrstack+0xdffafcff>
    2342:	8ef9                	and	a3,a3,a4
    2344:	0cd9aa23          	sw	a3,212(s3)
		*(&R32_PA_PU + OFFSET_FOR_GPIOB(pin))     &= ~(pin & ~PB);
    2348:	400016b7          	lui	a3,0x40001
    234c:	0d068693          	addi	a3,a3,208 # 400010d0 <_eusrstack+0x1ffe10d0>
    2350:	4290                	lw	a2,0(a3)
    2352:	8e79                	and	a2,a2,a4
    2354:	c290                	sw	a2,0(a3)
		*(&R32_PA_DIR + OFFSET_FOR_GPIOB(pin))    &= ~(pin & ~PB);
    2356:	0c092683          	lw	a3,192(s2)
    235a:	8f75                	and	a4,a4,a3
    235c:	0ce92023          	sw	a4,192(s2)
	R32_PIN_IN_DIS |= (((PB8 | PB9) & ~PB) << 16); // disable PB8 PB9 digital input
    2360:	4fd8                	lw	a4,28(a5)
    2362:	030006b7          	lui	a3,0x3000
    2366:	8f55                	or	a4,a4,a3
    2368:	cfd8                	sw	a4,28(a5)
	R16_PIN_CONFIG |= (((PB16 | PB17) & ~PB) >> 8); // gpio alt func
    236a:	01a4d783          	lhu	a5,26(s1)
	R16_PIN_ALTERNATE |= RB_RF_ANT_SW_EN;
    236e:	66a1                	lui	a3,0x8
	R16_PIN_CONFIG |= (((PB16 | PB17) & ~PB) >> 8); // gpio alt func
    2370:	3007e793          	ori	a5,a5,768
    2374:	00f49d23          	sh	a5,26(s1)
	R16_PIN_ALTERNATE |= RB_RF_ANT_SW_EN;
    2378:	400017b7          	lui	a5,0x40001
    237c:	0187d703          	lhu	a4,24(a5) # 40001018 <_eusrstack+0x1ffe1018>
    2380:	8f55                	or	a4,a4,a3
    2382:	00e79c23          	sh	a4,24(a5)
	nfca_pcd_start();
    2386:	bf8ff0ef          	jal	177e <nfca_pcd_start>
	Delay_Ms(200);
    238a:	00be7537          	lui	a0,0xbe7
    238e:	e0050513          	addi	a0,a0,-512 # be6e00 <ch585_grand_finale.c.edbc3f23+0xbe2f63>
    2392:	93eff0ef          	jal	14d0 <DelaySysTick>
	tkey_cfg = R8_TKEY_CFG;
    2396:	400017b7          	lui	a5,0x40001
	sensor = R8_TEM_SENSOR;
    239a:	40001737          	lui	a4,0x40001
	tkey_cfg = R8_TKEY_CFG;
    239e:	0577c903          	lbu	s2,87(a5) # 40001057 <_eusrstack+0x1ffe1057>
	channel = R8_ADC_CHANNEL;
    23a2:	400016b7          	lui	a3,0x40001
	sensor = R8_TEM_SENSOR;
    23a6:	05b74a03          	lbu	s4,91(a4) # 4000105b <_eusrstack+0x1ffe105b>
	config = R8_ADC_CFG;
    23aa:	40001737          	lui	a4,0x40001
	channel = R8_ADC_CHANNEL;
    23ae:	0586c483          	lbu	s1,88(a3) # 40001058 <_eusrstack+0x1ffe1058>
	config = R8_ADC_CFG;
    23b2:	05974983          	lbu	s3,89(a4) # 40001059 <_eusrstack+0x1ffe1059>
	R8_TKEY_CFG &= ~RB_TKEY_PWR_ON;
    23b6:	0577c603          	lbu	a2,87(a5)
	Delay_Ms(100);
    23ba:	005f3537          	lui	a0,0x5f3
    23be:	70050513          	addi	a0,a0,1792 # 5f3700 <ch585_grand_finale.c.edbc3f23+0x5ef863>
	R8_TKEY_CFG &= ~RB_TKEY_PWR_ON;
    23c2:	0fe67613          	andi	a2,a2,254
    23c6:	04c78ba3          	sb	a2,87(a5)
	R8_ADC_CHANNEL = CH_INTE_NFC;
    23ca:	47c1                	li	a5,16
    23cc:	04f68c23          	sb	a5,88(a3)
	R8_ADC_CFG = RB_ADC_POWER_ON | RB_ADC_BUF_EN | (SampleFreq_8_or_4 << 6) | (ADC_PGA_1_4 << 4);
    23d0:	04300793          	li	a5,67
    23d4:	04f70ca3          	sb	a5,89(a4)
	R8_ADC_CONVERT &= ~RB_ADC_PGA_GAIN2;
    23d8:	00044783          	lbu	a5,0(s0)
	tkey_cfg = R8_TKEY_CFG;
    23dc:	0ff97913          	zext.b	s2,s2
	sensor = R8_TEM_SENSOR;
    23e0:	0ffa7a13          	zext.b	s4,s4
	R8_ADC_CONVERT &= ~RB_ADC_PGA_GAIN2;
    23e4:	0fd7f793          	andi	a5,a5,253
    23e8:	00f40023          	sb	a5,0(s0)
	R8_ADC_CONVERT &= ~(3 << 4);
    23ec:	00044783          	lbu	a5,0(s0)
	channel = R8_ADC_CHANNEL;
    23f0:	0ff4f493          	zext.b	s1,s1
	config = R8_ADC_CFG;
    23f4:	0ff9f993          	zext.b	s3,s3
	R8_ADC_CONVERT &= ~(3 << 4);
    23f8:	0cf7f793          	andi	a5,a5,207
    23fc:	00f40023          	sb	a5,0(s0)
	Delay_Ms(100);
    2400:	8d0ff0ef          	jal	14d0 <DelaySysTick>
	adc_min = 0xffff;
    2404:	6641                	lui	a2,0x10
			uint64_t deadline = now_ticks() + Ticks_from_Ms(10);
    2406:	000988b7          	lui	a7,0x98
		adc_value = R16_ADC_DATA;
    240a:	40001837          	lui	a6,0x40001
	Delay_Ms(100);
    240e:	4529                	li	a0,10
	adc_all = 0;
    2410:	4781                	li	a5,0
	adc_min = 0xffff;
    2412:	167d                	addi	a2,a2,-1 # ffff <ch585_grand_finale.c.edbc3f23+0xc162>
	adc_max = 0;
    2414:	4681                	li	a3,0
	return (uint64_t)funSysTick32();
    2416:	e000f337          	lui	t1,0xe000f
			uint64_t deadline = now_ticks() + Ticks_from_Ms(10);
    241a:	58088893          	addi	a7,a7,1408 # 98580 <ch585_grand_finale.c.edbc3f23+0x946e3>
		adc_value = R16_ADC_DATA;
    241e:	05c80813          	addi	a6,a6,92 # 4000105c <_eusrstack+0x1ffe105c>
		R8_ADC_CONVERT |= RB_ADC_START;
    2422:	00044703          	lbu	a4,0(s0)
    2426:	00176713          	ori	a4,a4,1
    242a:	00e40023          	sb	a4,0(s0)
	return (uint64_t)funSysTick32();
    242e:	00832703          	lw	a4,8(t1) # e000f008 <_eusrstack+0xbffef008>
			uint64_t deadline = now_ticks() + Ticks_from_Ms(10);
    2432:	01170e33          	add	t3,a4,a7
    2436:	00ee3733          	sltu	a4,t3,a4
				if ((int64_t)(now_ticks() - deadline) > 0) {
    243a:	40e005b3          	neg	a1,a4
			while (R8_ADC_CONVERT & (RB_ADC_START | RB_ADC_EOC_X)) {
    243e:	00044703          	lbu	a4,0(s0)
    2442:	08177713          	andi	a4,a4,129
    2446:	cf11                	beqz	a4,2462 <main+0x272>
	return (uint64_t)funSysTick32();
    2448:	00832703          	lw	a4,8(t1)
				if ((int64_t)(now_ticks() - deadline) > 0) {
    244c:	41c70eb3          	sub	t4,a4,t3
    2450:	01d73733          	sltu	a4,a4,t4
    2454:	40e58733          	sub	a4,a1,a4
    2458:	00e04563          	bgtz	a4,2462 <main+0x272>
    245c:	f36d                	bnez	a4,243e <main+0x24e>
    245e:	fe0e80e3          	beqz	t4,243e <main+0x24e>
		adc_value = R16_ADC_DATA;
    2462:	00085703          	lhu	a4,0(a6)
    2466:	0742                	slli	a4,a4,0x10
    2468:	8341                	srli	a4,a4,0x10
		if(adc_value > adc_max) {
    246a:	85ba                	mv	a1,a4
    246c:	00d77363          	bgeu	a4,a3,2472 <main+0x282>
    2470:	85b6                	mv	a1,a3
    2472:	01059693          	slli	a3,a1,0x10
    2476:	82c1                	srli	a3,a3,0x10
		if(adc_value < adc_min) {
    2478:	85ba                	mv	a1,a4
    247a:	00e67363          	bgeu	a2,a4,2480 <main+0x290>
    247e:	85b2                	mv	a1,a2
    2480:	01059613          	slli	a2,a1,0x10
	for(int i = 0; i < 10; i++) {
    2484:	157d                	addi	a0,a0,-1
		if(adc_value < adc_min) {
    2486:	8241                	srli	a2,a2,0x10
		adc_all = adc_all + adc_value;
    2488:	97ba                	add	a5,a5,a4
	for(int i = 0; i < 10; i++) {
    248a:	fd41                	bnez	a0,2422 <main+0x232>
	R8_TEM_SENSOR = sensor;
    248c:	40001737          	lui	a4,0x40001
    2490:	05470da3          	sb	s4,91(a4) # 4000105b <_eusrstack+0x1ffe105b>
	if(channel == CH_INTE_NFC) {
    2494:	45c1                	li	a1,16
    2496:	40001737          	lui	a4,0x40001
    249a:	05870713          	addi	a4,a4,88 # 40001058 <_eusrstack+0x1ffe1058>
    249e:	06b49763          	bne	s1,a1,250c <main+0x31c>
		R8_ADC_CHANNEL = CH_INTE_VBAT;
    24a2:	45b9                	li	a1,14
    24a4:	00b70023          	sb	a1,0(a4)
	adc_all = adc_all - adc_max - adc_min;
    24a8:	96b2                	add	a3,a3,a2
    24aa:	8f95                	sub	a5,a5,a3
	R8_ADC_CFG = config;
    24ac:	40001737          	lui	a4,0x40001
	gs_lpcd_adc_base_value = adc_all >> 3;
    24b0:	838d                	srli	a5,a5,0x3
	R8_ADC_CFG = config;
    24b2:	05370ca3          	sb	s3,89(a4) # 40001059 <_eusrstack+0x1ffe1059>
	gs_lpcd_adc_base_value = adc_all >> 3;
    24b6:	07c2                	slli	a5,a5,0x10
	R8_TKEY_CFG = tkey_cfg;
    24b8:	40001737          	lui	a4,0x40001
	gs_lpcd_adc_base_value = adc_all >> 3;
    24bc:	83c1                	srli	a5,a5,0x10
	R8_TKEY_CFG = tkey_cfg;
    24be:	05270ba3          	sb	s2,87(a4) # 40001057 <_eusrstack+0x1ffe1057>
	gs_lpcd_adc_base_value = adc_all >> 3;
    24c2:	c0f19a23          	sh	a5,-1004(gp) # 20001440 <gs_lpcd_adc_base_value>
		gs_lpcd_adc_filter_buf[i] = gs_lpcd_adc_base_value;
    24c6:	14018713          	addi	a4,gp,320 # 2000196c <gs_lpcd_adc_filter_buf>
    24ca:	00f71023          	sh	a5,0(a4)
    24ce:	00f71123          	sh	a5,2(a4)
    24d2:	00f71223          	sh	a5,4(a4)
    24d6:	00f71323          	sh	a5,6(a4)
    24da:	00f71423          	sh	a5,8(a4)
    24de:	00f71523          	sh	a5,10(a4)
    24e2:	00f71623          	sh	a5,12(a4)
    24e6:	00f71723          	sh	a5,14(a4)
	R8_NFC_STATUS = 0;
    24ea:	4000e7b7          	lui	a5,0x4000e
    24ee:	000780a3          	sb	zero,1(a5) # 4000e001 <_eusrstack+0x1ffee001>
	R8_NFC_CMD = 0;
    24f2:	4000e7b7          	lui	a5,0x4000e
    24f6:	00078023          	sb	zero,0(a5) # 4000e000 <_eusrstack+0x1ffee000>
	NVIC->IRER[((uint32_t)(IRQn) >> 5)] = (1 << ((uint32_t)(IRQn) & 0x1F));
    24fa:	4741                	li	a4,16
    24fc:	e000e7b7          	lui	a5,0xe000e
    2500:	18e7a223          	sw	a4,388(a5) # e000e184 <_eusrstack+0xbffee184>
#endif

	nfca_init();
	nfca_pcd_lpcd_calibration();

	main_task_loop(); // Never returns
    2504:	1ffff097          	auipc	ra,0x1ffff
    2508:	98e080e7          	jalr	-1650(ra) # 20000e92 <main_task_loop>
		R8_ADC_CHANNEL = channel;
    250c:	00970023          	sb	s1,0(a4)
    2510:	bf61                	j	24a8 <main+0x2b8>
	...

00002514 <string3>:
    2514:	0308 0035 0038 0035 0000 0000               ..5.8.5.....

00002520 <string2>:
    2520:	030a 004e 0046 0043 0041 0000               ..N.F.C.A...

0000252c <string1>:
    252c:	0310 0063 0068 0033 0032 0066 0075 006e     ..c.h.3.2.f.u.n.
    253c:	0000 0000                                   ....

00002540 <string0>:
    2540:	0304 0409 1f08 0000 1e7c 0000 1daa 0000     ........|.......
    2550:	1eb4 0000 1daa 0000 1e36 0000 1dcc 0000     ........6.......
    2560:	1daa 0000 1e3c 0000 1e50 0000 1efc 0000     ....<...P.......
    2570:	1df6 0000 666e 6163 3835 2035 3176 0000     ....nfca585 v1..
    2580:	666e 6163 3835 2035 6f62 746f 0000 0000     nfca585 boot....

00002590 <config_descriptor>:
    2590:	0209 0020 0101 a000 0932 0004 0200 ffff     .. .....2.......
    25a0:	03ff 0507 0281 0040 0701 0205 4002 0100     ......@......@..

000025b0 <device_descriptor>:
    25b0:	0112 0200 0000 4000 1209 d035 0007 0201     .......@..5.....
    25c0:	0103 0000                                   ....

000025c4 <g_uid_scale>:
    25c4:	0106 0126 014a 0188 01b8 020b 0293 0310     ..&.J...........

000025d4 <byteParityBitsTable>:
    25d4:	0001 0100 0100 0001 0100 0001 0001 0100     ................
    25e4:	0100 0001 0001 0100 0001 0100 0100 0001     ................
    25f4:	0100 0001 0001 0100 0001 0100 0100 0001     ................
    2604:	0001 0100 0100 0001 0100 0001 0001 0100     ................
    2614:	0100 0001 0001 0100 0001 0100 0100 0001     ................
    2624:	0001 0100 0100 0001 0100 0001 0001 0100     ................
    2634:	0001 0100 0100 0001 0100 0001 0001 0100     ................
    2644:	0100 0001 0001 0100 0001 0100 0100 0001     ................
    2654:	0100 0001 0001 0100 0001 0100 0100 0001     ................
    2664:	0001 0100 0100 0001 0100 0001 0001 0100     ................
    2674:	0001 0100 0100 0001 0100 0001 0001 0100     ................
    2684:	0100 0001 0001 0100 0001 0100 0100 0001     ................
    2694:	0001 0100 0100 0001 0100 0001 0001 0100     ................
    26a4:	0100 0001 0001 0100 0001 0100 0100 0001     ................
    26b4:	0100 0001 0001 0100 0001 0100 0100 0001     ................
    26c4:	0001 0100 0100 0001 0100 0001 0001 0100     ................

000026d4 <descriptor_list>:
    26d4:	0100 0000 25b0 0000 0012 0000 0200 0000     .....%..........
    26e4:	2590 0000 0020 0000 0300 0000 2540 0000     .%.. .......@%..
    26f4:	0004 0000 0301 0409 252c 0000 0010 0000     ........,%......
    2704:	0302 0409 2520 0000 000a 0000 0303 0409     .... %..........
    2714:	2514 0000 0008 0000                         .%......
